Archive member included because of file (symbol)

contiki-wismote.a(er-coap.o)  park.co (coap_init_message)
contiki-wismote.a(er-coap-engine.)
                              park.co (coap_init_engine)
contiki-wismote.a(er-coap-transac)
                              contiki-wismote.a(er-coap-engine.) (coap_register_as_transaction_handler)
contiki-wismote.a(er-coap-observe)
                              contiki-wismote.a(er-coap-transac) (coap_remove_observer_by_client)
contiki-wismote.a(er-coap-res-wel)
                              contiki-wismote.a(er-coap-engine.) (res_well_known_core)
contiki-wismote.a(er-coap-observe)
                              contiki-wismote.a(er-coap-engine.) (coap_handle_notification)
contiki-wismote.a(rest-engine.o)
                              park.co (rest_init_engine)
contiki-wismote.a(contiki-wismote)
                              obj_wismote/contiki-wismote-main.o (init_platform)
contiki-wismote.a(button-sensor.o)
                              contiki-wismote.a(contiki-wismote) (button_sensor)
contiki-wismote.a(node-id.o)  park.co (node_id)
contiki-wismote.a(sensors.o)  contiki-wismote.a(button-sensor.o) (sensors_changed)
contiki-wismote.a(cc2520.o)   obj_wismote/contiki-wismote-main.o (cc2520_set_channel)
contiki-wismote.a(cc2520-arch.o)
                              contiki-wismote.a(cc2520.o) (cc2520_arch_init)
contiki-wismote.a(uart1.o)    obj_wismote/contiki-wismote-main.o (uart1_active)
contiki-wismote.a(uart1-putchar.o)
                              park.co (putchar)
contiki-wismote.a(msp430.o)   obj_wismote/contiki-wismote-main.o (msp430_cpu_init)
contiki-wismote.a(clock.o)    park.co (clock_init)
contiki-wismote.a(leds.o)     obj_wismote/contiki-wismote-main.o (leds_init)
contiki-wismote.a(leds-arch.o)
                              contiki-wismote.a(leds.o) (leds_arch_init)
contiki-wismote.a(watchdog.o)
                              obj_wismote/contiki-wismote-main.o (watchdog_start)
contiki-wismote.a(rtimer-arch.o)
                              obj_wismote/contiki-wismote-main.o (rtimer_arch_now)
contiki-wismote.a(autostart.o)
                              obj_wismote/contiki-wismote-main.o (autostart_start)
contiki-wismote.a(energest.o)
                              obj_wismote/contiki-wismote-main.o (energest_init)
contiki-wismote.a(etimer.o)   contiki-wismote.a(clock.o) (etimer_request_poll)
contiki-wismote.a(ctimer.o)   obj_wismote/contiki-wismote-main.o (ctimer_init)
contiki-wismote.a(process.o)  park.co (process_current)
contiki-wismote.a(rtimer.o)   obj_wismote/contiki-wismote-main.o (rtimer_init)
contiki-wismote.a(timer.o)    contiki-wismote.a(button-sensor.o) (timer_set)
contiki-wismote.a(list.o)     contiki-wismote.a(rest-engine.o) (list_init)
contiki-wismote.a(memb.o)     contiki-wismote.a(er-coap-transac) (memb_alloc)
contiki-wismote.a(random.o)   contiki-wismote.a(er-coap.o) (random_rand)
contiki-wismote.a(uip-ds6.o)  park.co (uip_ds6_addr_lookup)
contiki-wismote.a(uip-ds6-route.o)
                              contiki-wismote.a(uip-ds6.o) (uip_ds6_route_init)
contiki-wismote.a(uip6.o)     contiki-wismote.a(er-coap-engine.) (uip_aligned_buf)
contiki-wismote.a(uip-ds6-nbr.o)
                              contiki-wismote.a(uip-ds6.o) (uip_ds6_neighbors_init)
contiki-wismote.a(uip-nd6.o)  contiki-wismote.a(uip-ds6-nbr.o) (uip_nd6_ns_output)
contiki-wismote.a(sicslowpan.o)
                              obj_wismote/contiki-wismote-main.o (sicslowpan_driver)
contiki-wismote.a(uip-debug.o)
                              contiki-wismote.a(uip-ds6-route.o) (uip_debug_ipaddr_print)
contiki-wismote.a(uip-udp-packet.)
                              contiki-wismote.a(er-coap.o) (uip_udp_packet_send)
contiki-wismote.a(tcpip.o)    contiki-wismote.a(sicslowpan.o) (tcpip_set_outputfunc)
contiki-wismote.a(rpl-ext-header.)
                              contiki-wismote.a(uip6.o) (rpl_verify_header)
contiki-wismote.a(rpl.o)      contiki-wismote.a(uip-ds6-nbr.o) (rpl_link_neighbor_callback)
contiki-wismote.a(rpl-mrhof.o)
                              contiki-wismote.a(rpl.o) (rpl_mrhof)
contiki-wismote.a(rpl-dag.o)  contiki-wismote.a(rpl-mrhof.o) (rpl_get_nbr)
contiki-wismote.a(queuebuf.o)
                              obj_wismote/contiki-wismote-main.o (queuebuf_init)
contiki-wismote.a(nbr-table.o)
                              contiki-wismote.a(uip-ds6-route.o) (nbr_table_register)
contiki-wismote.a(packetbuf.o)
                              contiki-wismote.a(queuebuf.o) (packetbuf_copyto)
contiki-wismote.a(linkaddr.o)
                              obj_wismote/contiki-wismote-main.o (linkaddr_copy)
contiki-wismote.a(nullmac.o)  park.co (nullmac_driver)
contiki-wismote.a(nullrdc.o)  obj_wismote/contiki-wismote-main.o (nullrdc_driver)
contiki-wismote.a(framer-802154.o)
                              contiki-wismote.a(sicslowpan.o) (framer_802154)
contiki-wismote.a(frame802154.o)
                              contiki-wismote.a(framer-802154.o) (frame802154_hdrlen)
contiki-wismote.a(mac.o)      contiki-wismote.a(nullrdc.o) (mac_call_sent_callback)
contiki-wismote.a(framer.o)   contiki-wismote.a(framer-802154.o) (framer_canonical_create_and_secure)
contiki-wismote.a(nullsec.o)  contiki-wismote.a(sicslowpan.o) (nullsec_driver)
contiki-wismote.a(spi.o)      contiki-wismote.a(cc2520-arch.o) (spi_init)
contiki-wismote.a(stimer.o)   contiki-wismote.a(uip-ds6.o) (stimer_set)
contiki-wismote.a(uip-icmp6.o)
                              contiki-wismote.a(uip6.o) (uip_icmp6_input)
contiki-wismote.a(rpl-icmp6.o)
                              contiki-wismote.a(rpl-ext-header.) (dao_output_target)
contiki-wismote.a(rpl-timers.o)
                              contiki-wismote.a(rpl.o) (rpl_reset_periodic_timer)
contiki-wismote.a(mac-sequence.o)
                              contiki-wismote.a(nullrdc.o) (mac_sequence_is_duplicate)
/opt/compilers/mspgcc-4.7.3/bin/../lib/gcc/msp430/4.7.3/mcpu-430x/mmpy-16/msr20/mc20/libgcc.a(_udivmod16.o)
                              contiki-wismote.a(rpl-dag.o) (__udivhi3)
/opt/compilers/mspgcc-4.7.3/bin/../lib/gcc/msp430/4.7.3/mcpu-430x/mmpy-16/msr20/mc20/libgcc.a(_divmod16.o)
                              contiki-wismote.a(nbr-table.o) (__divhi3)
/opt/compilers/mspgcc-4.7.3/bin/../lib/gcc/msp430/4.7.3/mcpu-430x/mmpy-16/msr20/mc20/libgcc.a(_udivmod32.o)
                              obj_wismote/helpers.o (__udivsi3)
/opt/compilers/mspgcc-4.7.3/bin/../lib/gcc/msp430/4.7.3/mcpu-430x/mmpy-16/msr20/mc20/libgcc.a(_divmod32.o)
                              contiki-wismote.a(er-coap-observe) (__modsi3)
/opt/compilers/mspgcc-4.7.3/bin/../lib/gcc/msp430/4.7.3/../../../../msp430/lib/mcpu-430x/mmpy-16/msr20/mc20/libc.a(malloc.o)
                              park.co (malloc)
/opt/compilers/mspgcc-4.7.3/bin/../lib/gcc/msp430/4.7.3/../../../../msp430/lib/mcpu-430x/mmpy-16/msr20/mc20/libc.a(atoi.o)
                              obj_wismote/helpers.o (atoi)
/opt/compilers/mspgcc-4.7.3/bin/../lib/gcc/msp430/4.7.3/../../../../msp430/lib/mcpu-430x/mmpy-16/msr20/mc20/libc.a(strtoul.o)
                              obj_wismote/helpers.o (strtoul)
/opt/compilers/mspgcc-4.7.3/bin/../lib/gcc/msp430/4.7.3/../../../../msp430/lib/mcpu-430x/mmpy-16/msr20/mc20/libc.a(printf.o)
                              park.co (printf)
/opt/compilers/mspgcc-4.7.3/bin/../lib/gcc/msp430/4.7.3/../../../../msp430/lib/mcpu-430x/mmpy-16/msr20/mc20/libc.a(sprintf.o)
                              contiki-wismote.a(er-coap-res-wel) (snprintf)
/opt/compilers/mspgcc-4.7.3/bin/../lib/gcc/msp430/4.7.3/../../../../msp430/lib/mcpu-430x/mmpy-16/msr20/mc20/libc.a(vuprintf.o)
                              /opt/compilers/mspgcc-4.7.3/bin/../lib/gcc/msp430/4.7.3/../../../../msp430/lib/mcpu-430x/mmpy-16/msr20/mc20/libc.a(printf.o) (vuprintf)
/opt/compilers/mspgcc-4.7.3/bin/../lib/gcc/msp430/4.7.3/../../../../msp430/lib/mcpu-430x/mmpy-16/msr20/mc20/libc.a(puts.o)
                              park.co (puts)
/opt/compilers/mspgcc-4.7.3/bin/../lib/gcc/msp430/4.7.3/../../../../msp430/lib/mcpu-430x/mmpy-16/msr20/mc20/libc.a(rand.o)
                              park.co (rand)
/opt/compilers/mspgcc-4.7.3/bin/../lib/gcc/msp430/4.7.3/../../../../msp430/lib/mcpu-430x/mmpy-16/msr20/mc20/libc.a(strchr.o)
                              contiki-wismote.a(er-coap.o) (strchr)
/opt/compilers/mspgcc-4.7.3/bin/../lib/gcc/msp430/4.7.3/../../../../msp430/lib/mcpu-430x/mmpy-16/msr20/mc20/libc.a(memchr.o)
                              contiki-wismote.a(er-coap.o) (memchr)
/opt/compilers/mspgcc-4.7.3/bin/../lib/gcc/msp430/4.7.3/../../../../msp430/lib/mcpu-430x/mmpy-16/msr20/mc20/libc.a(strncmp.o)
                              contiki-wismote.a(er-coap.o) (strncmp)
/opt/compilers/mspgcc-4.7.3/bin/../lib/gcc/msp430/4.7.3/../../../../msp430/lib/mcpu-430x/mmpy-16/msr20/mc20/libc.a(memcmp.o)
                              contiki-wismote.a(er-coap-observe) (memcmp)
/opt/compilers/mspgcc-4.7.3/bin/../lib/gcc/msp430/4.7.3/../../../../msp430/lib/mcpu-430x/mmpy-16/msr20/mc20/libc.a(memcpy.o)
                              obj_wismote/contiki-wismote-main.o (memcpy)
/opt/compilers/mspgcc-4.7.3/bin/../lib/gcc/msp430/4.7.3/../../../../msp430/lib/mcpu-430x/mmpy-16/msr20/mc20/libc.a(memmove.o)
                              contiki-wismote.a(er-coap.o) (memmove)
/opt/compilers/mspgcc-4.7.3/bin/../lib/gcc/msp430/4.7.3/../../../../msp430/lib/mcpu-430x/mmpy-16/msr20/mc20/libc.a(memset.o)
                              obj_wismote/contiki-wismote-main.o (memset)
/opt/compilers/mspgcc-4.7.3/bin/../lib/gcc/msp430/4.7.3/../../../../msp430/lib/mcpu-430x/mmpy-16/msr20/mc20/libc.a(strcat.o)
                              obj_wismote/dataLayer.o (strcat)
/opt/compilers/mspgcc-4.7.3/bin/../lib/gcc/msp430/4.7.3/../../../../msp430/lib/mcpu-430x/mmpy-16/msr20/mc20/libc.a(errno.o)
                              /opt/compilers/mspgcc-4.7.3/bin/../lib/gcc/msp430/4.7.3/../../../../msp430/lib/mcpu-430x/mmpy-16/msr20/mc20/libc.a(strtoul.o) (errno)
/opt/compilers/mspgcc-4.7.3/bin/../lib/gcc/msp430/4.7.3/mcpu-430x/mmpy-16/msr20/mc20/libgcc.a(_mulsi3.o)
                              /opt/compilers/mspgcc-4.7.3/bin/../lib/gcc/msp430/4.7.3/../../../../msp430/lib/mcpu-430x/mmpy-16/msr20/mc20/libc.a(strtoul.o) (__mulsi3)
/opt/compilers/mspgcc-4.7.3/bin/../lib/gcc/msp430/4.7.3/mcpu-430x/mmpy-16/msr20/mc20/libgcc.a(_udivmod64.o)
                              /opt/compilers/mspgcc-4.7.3/bin/../lib/gcc/msp430/4.7.3/../../../../msp430/lib/mcpu-430x/mmpy-16/msr20/mc20/libc.a(vuprintf.o) (__udivdi3)
/opt/compilers/mspgcc-4.7.3/bin/../lib/gcc/msp430/4.7.3/mcpu-430x/mmpy-16/msr20/mc20/libcrt0.a(_reset_vector__.o)
                              (_reset_vector__)
/opt/compilers/mspgcc-4.7.3/bin/../lib/gcc/msp430/4.7.3/mcpu-430x/mmpy-16/msr20/mc20/libcrt0.a(__watchdog_support.o)
                              /opt/compilers/mspgcc-4.7.3/bin/../lib/gcc/msp430/4.7.3/mcpu-430x/mmpy-16/msr20/mc20/libcrt0.a(_reset_vector__.o) (__watchdog_support)
/opt/compilers/mspgcc-4.7.3/bin/../lib/gcc/msp430/4.7.3/mcpu-430x/mmpy-16/msr20/mc20/libcrt0.a(__init_stack.o)
                              /opt/compilers/mspgcc-4.7.3/bin/../lib/gcc/msp430/4.7.3/mcpu-430x/mmpy-16/msr20/mc20/libcrt0.a(_reset_vector__.o) (__init_stack)
/opt/compilers/mspgcc-4.7.3/bin/../lib/gcc/msp430/4.7.3/mcpu-430x/mmpy-16/msr20/mc20/libcrt0.a(__low_level_init.o)
                              /opt/compilers/mspgcc-4.7.3/bin/../lib/gcc/msp430/4.7.3/mcpu-430x/mmpy-16/msr20/mc20/libcrt0.a(_reset_vector__.o) (__low_level_init)
/opt/compilers/mspgcc-4.7.3/bin/../lib/gcc/msp430/4.7.3/mcpu-430x/mmpy-16/msr20/mc20/libcrt0.a(_copy_data.o)
                              /opt/compilers/mspgcc-4.7.3/bin/../lib/gcc/msp430/4.7.3/mcpu-430x/mmpy-16/msr20/mc20/libcrt0.a(_reset_vector__.o) (__do_copy_data)
/opt/compilers/mspgcc-4.7.3/bin/../lib/gcc/msp430/4.7.3/mcpu-430x/mmpy-16/msr20/mc20/libcrt0.a(_clear_bss.o)
                              /opt/compilers/mspgcc-4.7.3/bin/../lib/gcc/msp430/4.7.3/mcpu-430x/mmpy-16/msr20/mc20/libcrt0.a(_reset_vector__.o) (__do_clear_bss)
/opt/compilers/mspgcc-4.7.3/bin/../lib/gcc/msp430/4.7.3/mcpu-430x/mmpy-16/msr20/mc20/libcrt0.a(__stop_progExec__.o)
                              obj_wismote/helpers.o (__stop_progExec__)
/opt/compilers/mspgcc-4.7.3/bin/../lib/gcc/msp430/4.7.3/mcpu-430x/mmpy-16/msr20/mc20/libcrt0.a(_endless_loop__.o)
                              /opt/compilers/mspgcc-4.7.3/bin/../lib/gcc/msp430/4.7.3/mcpu-430x/mmpy-16/msr20/mc20/libcrt0.a(_reset_vector__.o) (_endless_loop__)
/opt/compilers/mspgcc-4.7.3/bin/../lib/gcc/msp430/4.7.3/mcpu-430x/mmpy-16/msr20/mc20/libcrt0.a(_unexpected_.o)
                              /opt/compilers/mspgcc-4.7.3/bin/../lib/gcc/msp430/4.7.3/mcpu-430x/mmpy-16/msr20/mc20/crt0ivtbl64.o (_unexpected_)

Allocating common symbols
Common symbol       size              file

energest_total_time
                    0x30              contiki-wismote.a(energest.o)
uip_ds6_timer_ra    0x8               contiki-wismote.a(uip-ds6.o)
uip_ds6_if          0xec              contiki-wismote.a(uip-ds6.o)
uip_ds6_netif_addr_list_offset
                    0x1               contiki-wismote.a(uip-ds6.o)
uip_len             0x2               contiki-wismote.a(uip6.o)
energest_total_count
                    0x2               contiki-wismote.a(energest.o)
cc2520_sfd_counter  0x1               contiki-wismote.a(cc2520.o)
errno               0x2               /opt/compilers/mspgcc-4.7.3/bin/../lib/gcc/msp430/4.7.3/../../../../msp430/lib/mcpu-430x/mmpy-16/msr20/mc20/libc.a(errno.o)
cc2520_sfd_start_time
                    0x2               contiki-wismote.a(cc2520.o)
uip_ds6_addr_size   0x1               contiki-wismote.a(uip-ds6.o)
uip_sappdata        0x2               contiki-wismote.a(uip6.o)
energest_current_mode
                    0xc               contiki-wismote.a(energest.o)
packetbuf_addrs     0x10              contiki-wismote.a(packetbuf.o)
cc2520_sfd_end_time
                    0x2               contiki-wismote.a(cc2520.o)
cc2520_time_of_departure
                    0x2               contiki-wismote.a(cc2520.o)
uip_ds6_prefix_list
                    0x5a              contiki-wismote.a(uip-ds6.o)
process_maxevents   0x1               contiki-wismote.a(process.o)
frag_sender         0x8               contiki-wismote.a(sicslowpan.o)
cc2520_packets_seen
                    0x2               contiki-wismote.a(cc2520.o)
uip_lladdr          0x8               contiki-wismote.a(uip6.o)
uip_aligned_buf     0xf0              contiki-wismote.a(uip6.o)
uip_flags           0x1               contiki-wismote.a(uip6.o)
uip_ds6_timer_periodic
                    0xc               contiki-wismote.a(uip-ds6.o)
uip_next_hdr        0x2               contiki-wismote.a(uip6.o)
linkaddr_node_addr  0x8               contiki-wismote.a(linkaddr.o)
cc2520_packets_read
                    0x2               contiki-wismote.a(cc2520.o)
default_instance    0x2               contiki-wismote.a(rpl-dag.o)
cc2520_last_rssi    0x1               contiki-wismote.a(cc2520.o)
uip_udp_conn        0x2               contiki-wismote.a(uip6.o)
cc2520_time_of_arrival
                    0x2               contiki-wismote.a(cc2520.o)
packetbuf_attrs     0x1e              contiki-wismote.a(packetbuf.o)
msp430_dco_required
                    0x2               contiki-wismote.a(msp430.o)
instance_table      0xe4              contiki-wismote.a(rpl-dag.o)
uip_appdata         0x2               contiki-wismote.a(uip6.o)
uip_conn            0x2               contiki-wismote.a(uip6.o)
tcpip_event         0x1               contiki-wismote.a(tcpip.o)
cc2520_authority_level_of_sender
                    0x2               contiki-wismote.a(cc2520.o)
root_if             0x2               park.co
energest_current_time
                    0x18              contiki-wismote.a(energest.o)
sensors_flags       0x2               contiki-wismote.a(contiki-wismote)
sensors_event       0x1               contiki-wismote.a(sensors.o)
cc2520_last_correlation
                    0x1               contiki-wismote.a(cc2520.o)
uip_slen            0x2               contiki-wismote.a(uip6.o)
uip_udp_conns       0x138             contiki-wismote.a(uip6.o)

Discarded input sections

 .data          0x0000000000000000        0x0 /opt/compilers/mspgcc-4.7.3/bin/../lib/gcc/msp430/4.7.3/mcpu-430x/mmpy-16/msr20/mc20/crt0ivtbl64.o
 .bss           0x0000000000000000        0x0 /opt/compilers/mspgcc-4.7.3/bin/../lib/gcc/msp430/4.7.3/mcpu-430x/mmpy-16/msr20/mc20/crt0ivtbl64.o
 .text.crt0     0x0000000000000000        0x0 /opt/compilers/mspgcc-4.7.3/bin/../lib/gcc/msp430/4.7.3/mcpu-430x/mmpy-16/msr20/mc20/crt0ivtbl64.o
 .text          0x0000000000000000        0x0 park.co
 .data          0x0000000000000000        0x0 park.co
 .bss           0x0000000000000000        0x0 park.co
 COMMON         0x0000000000000000        0x2 park.co
 .text          0x0000000000000000        0x0 obj_wismote/parkevent.o
 .data          0x0000000000000000        0x0 obj_wismote/parkevent.o
 .bss           0x0000000000000000        0x0 obj_wismote/parkevent.o
 .text          0x0000000000000000        0x0 obj_wismote/dataLayer.o
 .data          0x0000000000000000        0x0 obj_wismote/dataLayer.o
 .bss           0x0000000000000000        0x0 obj_wismote/dataLayer.o
 .any.text.DataLayer_destroyStorage
                0x0000000000000000        0xa obj_wismote/dataLayer.o
 .text          0x0000000000000000        0x0 obj_wismote/data.o
 .data          0x0000000000000000        0x0 obj_wismote/data.o
 .bss           0x0000000000000000        0x0 obj_wismote/data.o
 .text          0x0000000000000000        0x0 obj_wismote/helpers.o
 .data          0x0000000000000000        0x0 obj_wismote/helpers.o
 .bss           0x0000000000000000        0x0 obj_wismote/helpers.o
 .any.text.getULDigit
                0x0000000000000000       0x20 obj_wismote/helpers.o
 .text          0x0000000000000000        0x0 obj_wismote/contiki-wismote-main.o
 .data          0x0000000000000000        0x0 obj_wismote/contiki-wismote-main.o
 .bss           0x0000000000000000        0x0 obj_wismote/contiki-wismote-main.o
 .any.text.uip_log
                0x0000000000000000        0x6 obj_wismote/contiki-wismote-main.o
 .text          0x0000000000000000        0x0 contiki-wismote.a(er-coap.o)
 .data          0x0000000000000000        0x0 contiki-wismote.a(er-coap.o)
 .bss           0x0000000000000000        0x0 contiki-wismote.a(er-coap.o)
 .any.text.coap_set_header_accept
                0x0000000000000000        0xc contiki-wismote.a(er-coap.o)
 .any.text.coap_get_header_etag
                0x0000000000000000       0x1c contiki-wismote.a(er-coap.o)
 .any.text.coap_set_header_if_match
                0x0000000000000000       0x28 contiki-wismote.a(er-coap.o)
 .any.text.coap_set_header_if_none_match
                0x0000000000000000        0xa contiki-wismote.a(er-coap.o)
 .any.text.coap_get_header_proxy_uri
                0x0000000000000000       0x16 contiki-wismote.a(er-coap.o)
 .any.text.coap_set_header_proxy_uri
                0x0000000000000000       0x1e contiki-wismote.a(er-coap.o)
 .any.text.coap_set_header_uri_host
                0x0000000000000000       0x1e contiki-wismote.a(er-coap.o)
 .any.text.coap_set_header_uri_query
                0x0000000000000000       0x2c contiki-wismote.a(er-coap.o)
 .any.text.coap_get_header_location_path
                0x0000000000000000       0x16 contiki-wismote.a(er-coap.o)
 .any.text.coap_get_header_location_query
                0x0000000000000000       0x18 contiki-wismote.a(er-coap.o)
 .any.text.coap_get_header_block1
                0x0000000000000000       0x4e contiki-wismote.a(er-coap.o)
 .any.text.coap_set_header_block1
                0x0000000000000000       0x38 contiki-wismote.a(er-coap.o)
 .any.text.coap_get_header_size1
                0x0000000000000000       0x1c contiki-wismote.a(er-coap.o)
 .any.text.coap_set_header_size1
                0x0000000000000000       0x12 contiki-wismote.a(er-coap.o)
 .text          0x0000000000000000        0x0 contiki-wismote.a(er-coap-engine.)
 .data          0x0000000000000000        0x0 contiki-wismote.a(er-coap-engine.)
 .bss           0x0000000000000000        0x0 contiki-wismote.a(er-coap-engine.)
 .text          0x0000000000000000        0x0 contiki-wismote.a(er-coap-transac)
 .data          0x0000000000000000        0x0 contiki-wismote.a(er-coap-transac)
 .bss           0x0000000000000000        0x0 contiki-wismote.a(er-coap-transac)
 .text          0x0000000000000000        0x0 contiki-wismote.a(er-coap-observe)
 .data          0x0000000000000000        0x0 contiki-wismote.a(er-coap-observe)
 .bss           0x0000000000000000        0x0 contiki-wismote.a(er-coap-observe)
 .text          0x0000000000000000        0x0 contiki-wismote.a(er-coap-res-wel)
 .data          0x0000000000000000        0x0 contiki-wismote.a(er-coap-res-wel)
 .bss           0x0000000000000000        0x0 contiki-wismote.a(er-coap-res-wel)
 .text          0x0000000000000000        0x0 contiki-wismote.a(er-coap-observe)
 .data          0x0000000000000000        0x0 contiki-wismote.a(er-coap-observe)
 .bss           0x0000000000000000        0x0 contiki-wismote.a(er-coap-observe)
 .rodata.coap_obs_remove_observee
                0x0000000000000000       0x2b contiki-wismote.a(er-coap-observe)
 .any.text.coap_obs_remove_observee
                0x0000000000000000       0x36 contiki-wismote.a(er-coap-observe)
 .rodata.handle_obs_registration_response
                0x0000000000000000       0x25 contiki-wismote.a(er-coap-observe)
 .any.text.handle_obs_registration_response
                0x0000000000000000       0x38 contiki-wismote.a(er-coap-observe)
 .rodata.coap_obs_remove_observee_by_token
                0x0000000000000000       0x1f contiki-wismote.a(er-coap-observe)
 .any.text.coap_obs_remove_observee_by_token
                0x0000000000000000       0x74 contiki-wismote.a(er-coap-observe)
 .rodata.coap_obs_remove_observee_by_url
                0x0000000000000000       0x15 contiki-wismote.a(er-coap-observe)
 .any.text.coap_obs_remove_observee_by_url
                0x0000000000000000       0x72 contiki-wismote.a(er-coap-observe)
 .rodata.coap_obs_add_observee
                0x0000000000000000       0x29 contiki-wismote.a(er-coap-observe)
 .any.text.coap_obs_add_observee
                0x0000000000000000       0x80 contiki-wismote.a(er-coap-observe)
 .any.text.coap_generate_token
                0x0000000000000000        0xe contiki-wismote.a(er-coap-observe)
 .rodata.coap_obs_request_registration
                0x0000000000000000       0x55 contiki-wismote.a(er-coap-observe)
 .any.text.coap_obs_request_registration
                0x0000000000000000       0xd4 contiki-wismote.a(er-coap-observe)
 .data.obs_subjects_memb
                0x0000000000000000        0x8 contiki-wismote.a(er-coap-observe)
 .bss.token.5173
                0x0000000000000000        0x1 contiki-wismote.a(er-coap-observe)
 .bss.obs_subjects_memb_memb_count
                0x0000000000000000        0x4 contiki-wismote.a(er-coap-observe)
 .bss.obs_subjects_memb_memb_mem
                0x0000000000000000       0xa8 contiki-wismote.a(er-coap-observe)
 .text          0x0000000000000000        0x0 contiki-wismote.a(rest-engine.o)
 .data          0x0000000000000000        0x0 contiki-wismote.a(rest-engine.o)
 .bss           0x0000000000000000        0x0 contiki-wismote.a(rest-engine.o)
 .text          0x0000000000000000        0x0 contiki-wismote.a(contiki-wismote)
 .data          0x0000000000000000        0x0 contiki-wismote.a(contiki-wismote)
 .bss           0x0000000000000000        0x0 contiki-wismote.a(contiki-wismote)
 .text          0x0000000000000000        0x0 contiki-wismote.a(button-sensor.o)
 .data          0x0000000000000000        0x0 contiki-wismote.a(button-sensor.o)
 .bss           0x0000000000000000        0x0 contiki-wismote.a(button-sensor.o)
 .text          0x0000000000000000        0x0 contiki-wismote.a(node-id.o)
 .data          0x0000000000000000        0x0 contiki-wismote.a(node-id.o)
 .bss           0x0000000000000000        0x0 contiki-wismote.a(node-id.o)
 .any.text.node_id_restore
                0x0000000000000000        0x6 contiki-wismote.a(node-id.o)
 .any.text.node_id_burn
                0x0000000000000000        0x2 contiki-wismote.a(node-id.o)
 .text          0x0000000000000000        0x0 contiki-wismote.a(sensors.o)
 .data          0x0000000000000000        0x0 contiki-wismote.a(sensors.o)
 .bss           0x0000000000000000        0x0 contiki-wismote.a(sensors.o)
 .any.text.sensors_first
                0x0000000000000000        0x6 contiki-wismote.a(sensors.o)
 .any.text.sensors_next
                0x0000000000000000       0x24 contiki-wismote.a(sensors.o)
 .any.text.sensors_find
                0x0000000000000000       0x40 contiki-wismote.a(sensors.o)
 .text          0x0000000000000000        0x0 contiki-wismote.a(cc2520.o)
 .data          0x0000000000000000        0x0 contiki-wismote.a(cc2520.o)
 .bss           0x0000000000000000        0x0 contiki-wismote.a(cc2520.o)
 .any.text.cc2520_get_channel
                0x0000000000000000        0x6 contiki-wismote.a(cc2520.o)
 .any.text.cc2520_set_txpower
                0x0000000000000000       0x14 contiki-wismote.a(cc2520.o)
 .any.text.cc2520_rssi
                0x0000000000000000       0x60 contiki-wismote.a(cc2520.o)
 .any.text.cc2520_cca_valid
                0x0000000000000000       0x26 contiki-wismote.a(cc2520.o)
 .any.text.cc2520_set_cca_threshold
                0x0000000000000000       0x14 contiki-wismote.a(cc2520.o)
 .text          0x0000000000000000        0x0 contiki-wismote.a(cc2520-arch.o)
 .data          0x0000000000000000        0x0 contiki-wismote.a(cc2520-arch.o)
 .bss           0x0000000000000000        0x0 contiki-wismote.a(cc2520-arch.o)
 .text          0x0000000000000000        0x0 contiki-wismote.a(uart1.o)
 .data          0x0000000000000000        0x0 contiki-wismote.a(uart1.o)
 .bss           0x0000000000000000        0x0 contiki-wismote.a(uart1.o)
 .any.text.uart1_set_input
                0x0000000000000000        0x6 contiki-wismote.a(uart1.o)
 .text          0x0000000000000000        0x0 contiki-wismote.a(uart1-putchar.o)
 .data          0x0000000000000000        0x0 contiki-wismote.a(uart1-putchar.o)
 .bss           0x0000000000000000        0x0 contiki-wismote.a(uart1-putchar.o)
 .text          0x0000000000000000        0x0 contiki-wismote.a(msp430.o)
 .data          0x0000000000000000        0x0 contiki-wismote.a(msp430.o)
 .bss           0x0000000000000000        0x0 contiki-wismote.a(msp430.o)
 .any.text.msp430_add_lpm_req
                0x0000000000000000        0xc contiki-wismote.a(msp430.o)
 .any.text.msp430_remove_lpm_req
                0x0000000000000000        0xc contiki-wismote.a(msp430.o)
 .any.text.sbrk
                0x0000000000000000       0x1e contiki-wismote.a(msp430.o)
 .text          0x0000000000000000        0x0 contiki-wismote.a(clock.o)
 .data          0x0000000000000000        0x0 contiki-wismote.a(clock.o)
 .bss           0x0000000000000000        0x0 contiki-wismote.a(clock.o)
 .any.text.clock_set
                0x0000000000000000       0x16 contiki-wismote.a(clock.o)
 .any.text.clock_fine_max
                0x0000000000000000        0x6 contiki-wismote.a(clock.o)
 .any.text.clock_fine
                0x0000000000000000        0xc contiki-wismote.a(clock.o)
 .any.text.clock_set_seconds
                0x0000000000000000       0x18 contiki-wismote.a(clock.o)
 .any.text.clock_counter
                0x0000000000000000        0xe contiki-wismote.a(clock.o)
 .text          0x0000000000000000        0x0 contiki-wismote.a(leds.o)
 .data          0x0000000000000000        0x0 contiki-wismote.a(leds.o)
 .bss           0x0000000000000000        0x0 contiki-wismote.a(leds.o)
 .any.text.leds_get
                0x0000000000000000        0x6 contiki-wismote.a(leds.o)
 .any.text.leds_set
                0x0000000000000000        0x6 contiki-wismote.a(leds.o)
 .any.text.leds_toggle
                0x0000000000000000        0xa contiki-wismote.a(leds.o)
 .any.text.leds_blink
                0x0000000000000000       0x20 contiki-wismote.a(leds.o)
 .text          0x0000000000000000        0x0 contiki-wismote.a(leds-arch.o)
 .data          0x0000000000000000        0x0 contiki-wismote.a(leds-arch.o)
 .bss           0x0000000000000000        0x0 contiki-wismote.a(leds-arch.o)
 .any.text.leds_arch_get
                0x0000000000000000       0x2c contiki-wismote.a(leds-arch.o)
 .text          0x0000000000000000        0x0 contiki-wismote.a(watchdog.o)
 .data          0x0000000000000000        0x0 contiki-wismote.a(watchdog.o)
 .bss           0x0000000000000000        0x0 contiki-wismote.a(watchdog.o)
 .any.text.watchdog_reboot
                0x0000000000000000        0x6 contiki-wismote.a(watchdog.o)
 .text          0x0000000000000000        0x0 contiki-wismote.a(rtimer-arch.o)
 .data          0x0000000000000000        0x0 contiki-wismote.a(rtimer-arch.o)
 .bss           0x0000000000000000        0x0 contiki-wismote.a(rtimer-arch.o)
 .text          0x0000000000000000        0x0 contiki-wismote.a(autostart.o)
 .data          0x0000000000000000        0x0 contiki-wismote.a(autostart.o)
 .bss           0x0000000000000000        0x0 contiki-wismote.a(autostart.o)
 .any.text.autostart_exit
                0x0000000000000000       0x14 contiki-wismote.a(autostart.o)
 .text          0x0000000000000000        0x0 contiki-wismote.a(energest.o)
 .data          0x0000000000000000        0x0 contiki-wismote.a(energest.o)
 .bss           0x0000000000000000        0x0 contiki-wismote.a(energest.o)
 .any.text.energest_leveldevice_leveltime
                0x0000000000000000        0x6 contiki-wismote.a(energest.o)
 .text          0x0000000000000000        0x0 contiki-wismote.a(etimer.o)
 .data          0x0000000000000000        0x0 contiki-wismote.a(etimer.o)
 .bss           0x0000000000000000        0x0 contiki-wismote.a(etimer.o)
 .any.text.etimer_adjust
                0x0000000000000000       0x1a contiki-wismote.a(etimer.o)
 .any.text.etimer_start_time
                0x0000000000000000        0x8 contiki-wismote.a(etimer.o)
 .text          0x0000000000000000        0x0 contiki-wismote.a(ctimer.o)
 .data          0x0000000000000000        0x0 contiki-wismote.a(ctimer.o)
 .bss           0x0000000000000000        0x0 contiki-wismote.a(ctimer.o)
 .any.text.ctimer_restart
                0x0000000000000000       0x2c contiki-wismote.a(ctimer.o)
 .any.text.ctimer_expired
                0x0000000000000000       0x30 contiki-wismote.a(ctimer.o)
 .text          0x0000000000000000        0x0 contiki-wismote.a(process.o)
 .data          0x0000000000000000        0x0 contiki-wismote.a(process.o)
 .bss           0x0000000000000000        0x0 contiki-wismote.a(process.o)
 .any.text.process_exit
                0x0000000000000000        0xa contiki-wismote.a(process.o)
 .any.text.process_is_running
                0x0000000000000000        0xe contiki-wismote.a(process.o)
 .text          0x0000000000000000        0x0 contiki-wismote.a(rtimer.o)
 .data          0x0000000000000000        0x0 contiki-wismote.a(rtimer.o)
 .bss           0x0000000000000000        0x0 contiki-wismote.a(rtimer.o)
 .any.text.rtimer_set
                0x0000000000000000       0x24 contiki-wismote.a(rtimer.o)
 .text          0x0000000000000000        0x0 contiki-wismote.a(timer.o)
 .data          0x0000000000000000        0x0 contiki-wismote.a(timer.o)
 .bss           0x0000000000000000        0x0 contiki-wismote.a(timer.o)
 .any.text.timer_remaining
                0x0000000000000000       0x24 contiki-wismote.a(timer.o)
 .text          0x0000000000000000        0x0 contiki-wismote.a(list.o)
 .data          0x0000000000000000        0x0 contiki-wismote.a(list.o)
 .bss           0x0000000000000000        0x0 contiki-wismote.a(list.o)
 .any.text.list_copy
                0x0000000000000000        0x6 contiki-wismote.a(list.o)
 .any.text.list_chop
                0x0000000000000000       0x1a contiki-wismote.a(list.o)
 .any.text.list_pop
                0x0000000000000000        0xe contiki-wismote.a(list.o)
 .any.text.list_insert
                0x0000000000000000       0x16 contiki-wismote.a(list.o)
 .text          0x0000000000000000        0x0 contiki-wismote.a(memb.o)
 .data          0x0000000000000000        0x0 contiki-wismote.a(memb.o)
 .bss           0x0000000000000000        0x0 contiki-wismote.a(memb.o)
 .text          0x0000000000000000        0x0 contiki-wismote.a(random.o)
 .data          0x0000000000000000        0x0 contiki-wismote.a(random.o)
 .bss           0x0000000000000000        0x0 contiki-wismote.a(random.o)
 .any.text.random_init
                0x0000000000000000        0x6 contiki-wismote.a(random.o)
 .text          0x0000000000000000        0x0 contiki-wismote.a(uip-ds6.o)
 .data          0x0000000000000000        0x0 contiki-wismote.a(uip-ds6.o)
 .bss           0x0000000000000000        0x0 contiki-wismote.a(uip-ds6.o)
 .any.text.uip_ds6_prefix_rm
                0x0000000000000000        0xa contiki-wismote.a(uip-ds6.o)
 .any.text.uip_ds6_prefix_lookup
                0x0000000000000000       0x28 contiki-wismote.a(uip-ds6.o)
 .any.text.uip_ds6_get_global
                0x0000000000000000       0x3e contiki-wismote.a(uip-ds6.o)
 .any.text.uip_ds6_aaddr_add
                0x0000000000000000       0x46 contiki-wismote.a(uip-ds6.o)
 .any.text.uip_ds6_aaddr_rm
                0x0000000000000000        0xa contiki-wismote.a(uip-ds6.o)
 .any.text.uip_ds6_aaddr_lookup
                0x0000000000000000       0x28 contiki-wismote.a(uip-ds6.o)
 .bss.locaaddr  0x0000000000000000        0x2 contiki-wismote.a(uip-ds6.o)
 .text          0x0000000000000000        0x0 contiki-wismote.a(uip-ds6-route.o)
 .data          0x0000000000000000        0x0 contiki-wismote.a(uip-ds6-route.o)
 .bss           0x0000000000000000        0x0 contiki-wismote.a(uip-ds6-route.o)
 .any.text.uip_ds6_notification_add
                0x0000000000000000       0x18 contiki-wismote.a(uip-ds6-route.o)
 .any.text.uip_ds6_notification_rm
                0x0000000000000000        0xc contiki-wismote.a(uip-ds6-route.o)
 .any.text.uip_ds6_route_num_routes
                0x0000000000000000        0x6 contiki-wismote.a(uip-ds6-route.o)
 .any.text.uip_ds6_route_rm_by_nexthop
                0x0000000000000000       0x14 contiki-wismote.a(uip-ds6-route.o)
 .text          0x0000000000000000        0x0 contiki-wismote.a(uip6.o)
 .data          0x0000000000000000        0x0 contiki-wismote.a(uip6.o)
 .bss           0x0000000000000000        0x0 contiki-wismote.a(uip6.o)
 .any.text.uip_chksum
                0x0000000000000000       0x18 contiki-wismote.a(uip6.o)
 .any.text.uip_htons
                0x0000000000000000        0xc contiki-wismote.a(uip6.o)
 .any.text.uip_send
                0x0000000000000000       0x48 contiki-wismote.a(uip6.o)
 .text          0x0000000000000000        0x0 contiki-wismote.a(uip-ds6-nbr.o)
 .data          0x0000000000000000        0x0 contiki-wismote.a(uip-ds6-nbr.o)
 .bss           0x0000000000000000        0x0 contiki-wismote.a(uip-ds6-nbr.o)
 .any.text.uip_ds6_nbr_get_ipaddr
                0x0000000000000000        0x2 contiki-wismote.a(uip-ds6-nbr.o)
 .any.text.uip_ds6_nbr_num
                0x0000000000000000       0x24 contiki-wismote.a(uip-ds6-nbr.o)
 .any.text.uip_ds6_get_least_lifetime_neighbor
                0x0000000000000000       0x4e contiki-wismote.a(uip-ds6-nbr.o)
 .text          0x0000000000000000        0x0 contiki-wismote.a(uip-nd6.o)
 .data          0x0000000000000000        0x0 contiki-wismote.a(uip-nd6.o)
 .bss           0x0000000000000000        0x0 contiki-wismote.a(uip-nd6.o)
 .text          0x0000000000000000        0x0 contiki-wismote.a(sicslowpan.o)
 .data          0x0000000000000000        0x0 contiki-wismote.a(sicslowpan.o)
 .bss           0x0000000000000000        0x0 contiki-wismote.a(sicslowpan.o)
 .any.text.rime_sniffer_add
                0x0000000000000000        0x6 contiki-wismote.a(sicslowpan.o)
 .any.text.rime_sniffer_remove
                0x0000000000000000        0x6 contiki-wismote.a(sicslowpan.o)
 .any.text.sicslowpan_get_last_rssi
                0x0000000000000000        0x6 contiki-wismote.a(sicslowpan.o)
 .text          0x0000000000000000        0x0 contiki-wismote.a(uip-debug.o)
 .data          0x0000000000000000        0x0 contiki-wismote.a(uip-debug.o)
 .bss           0x0000000000000000        0x0 contiki-wismote.a(uip-debug.o)
 .rodata.uip_debug_lladdr_print
                0x0000000000000000       0x14 contiki-wismote.a(uip-debug.o)
 .any.text.uip_debug_lladdr_print
                0x0000000000000000       0x3c contiki-wismote.a(uip-debug.o)
 .text          0x0000000000000000        0x0 contiki-wismote.a(uip-udp-packet.)
 .data          0x0000000000000000        0x0 contiki-wismote.a(uip-udp-packet.)
 .bss           0x0000000000000000        0x0 contiki-wismote.a(uip-udp-packet.)
 .any.text.uip_udp_packet_sendto
                0x0000000000000000       0x56 contiki-wismote.a(uip-udp-packet.)
 .text          0x0000000000000000        0x0 contiki-wismote.a(tcpip.o)
 .data          0x0000000000000000        0x0 contiki-wismote.a(tcpip.o)
 .bss           0x0000000000000000        0x0 contiki-wismote.a(tcpip.o)
 .any.text.udp_attach
                0x0000000000000000        0xc contiki-wismote.a(tcpip.o)
 .any.text.udp_broadcast_new
                0x0000000000000000       0x46 contiki-wismote.a(tcpip.o)
 .any.text.tcpip_poll_udp
                0x0000000000000000        0xe contiki-wismote.a(tcpip.o)
 .text          0x0000000000000000        0x0 contiki-wismote.a(rpl-ext-header.)
 .data          0x0000000000000000        0x0 contiki-wismote.a(rpl-ext-header.)
 .bss           0x0000000000000000        0x0 contiki-wismote.a(rpl-ext-header.)
 .any.text.rpl_remove_header
                0x0000000000000000       0x4c contiki-wismote.a(rpl-ext-header.)
 .text          0x0000000000000000        0x0 contiki-wismote.a(rpl.o)
 .data          0x0000000000000000        0x0 contiki-wismote.a(rpl.o)
 .bss           0x0000000000000000        0x0 contiki-wismote.a(rpl.o)
 .any.text.rpl_set_mode
                0x0000000000000000       0x3c contiki-wismote.a(rpl.o)
 .text          0x0000000000000000        0x0 contiki-wismote.a(rpl-mrhof.o)
 .data          0x0000000000000000        0x0 contiki-wismote.a(rpl-mrhof.o)
 .bss           0x0000000000000000        0x0 contiki-wismote.a(rpl-mrhof.o)
 .text          0x0000000000000000        0x0 contiki-wismote.a(rpl-dag.o)
 .data          0x0000000000000000        0x0 contiki-wismote.a(rpl-dag.o)
 .bss           0x0000000000000000        0x0 contiki-wismote.a(rpl-dag.o)
 .rodata.rpl_print_neighbor_list
                0x0000000000000000       0x6a contiki-wismote.a(rpl-dag.o)
 .any.text.rpl_print_neighbor_list
                0x0000000000000000       0xea contiki-wismote.a(rpl-dag.o)
 .any.text.rpl_get_parent_rank
                0x0000000000000000       0x18 contiki-wismote.a(rpl-dag.o)
 .any.text.rpl_get_parent_link_metric
                0x0000000000000000       0x18 contiki-wismote.a(rpl-dag.o)
 .any.text.rpl_set_default_instance
                0x0000000000000000        0x6 contiki-wismote.a(rpl-dag.o)
 .any.text.rpl_get_default_instance
                0x0000000000000000        0x6 contiki-wismote.a(rpl-dag.o)
 .any.text.rpl_free_instance
                0x0000000000000000       0x68 contiki-wismote.a(rpl-dag.o)
 .text          0x0000000000000000        0x0 contiki-wismote.a(queuebuf.o)
 .data          0x0000000000000000        0x0 contiki-wismote.a(queuebuf.o)
 .bss           0x0000000000000000        0x0 contiki-wismote.a(queuebuf.o)
 .any.text.queuebuf_update_attr_from_packetbuf
                0x0000000000000000       0x12 contiki-wismote.a(queuebuf.o)
 .any.text.queuebuf_update_from_packetbuf
                0x0000000000000000       0x22 contiki-wismote.a(queuebuf.o)
 .any.text.queuebuf_dataptr
                0x0000000000000000       0x1c contiki-wismote.a(queuebuf.o)
 .any.text.queuebuf_datalen
                0x0000000000000000        0x8 contiki-wismote.a(queuebuf.o)
 .any.text.queuebuf_addr
                0x0000000000000000        0xe contiki-wismote.a(queuebuf.o)
 .any.text.queuebuf_attr
                0x0000000000000000        0xe contiki-wismote.a(queuebuf.o)
 .any.text.queuebuf_debug_print
                0x0000000000000000        0x2 contiki-wismote.a(queuebuf.o)
 .text          0x0000000000000000        0x0 contiki-wismote.a(nbr-table.o)
 .data          0x0000000000000000        0x0 contiki-wismote.a(nbr-table.o)
 .bss           0x0000000000000000        0x0 contiki-wismote.a(nbr-table.o)
 .text          0x0000000000000000        0x0 contiki-wismote.a(packetbuf.o)
 .data          0x0000000000000000        0x0 contiki-wismote.a(packetbuf.o)
 .bss           0x0000000000000000        0x0 contiki-wismote.a(packetbuf.o)
 .any.text.packetbuf_clear_hdr
                0x0000000000000000        0x8 contiki-wismote.a(packetbuf.o)
 .any.text.packetbuf_copyto_hdr
                0x0000000000000000       0x1c contiki-wismote.a(packetbuf.o)
 .any.text.packetbuf_hdr_remove
                0x0000000000000000        0x6 contiki-wismote.a(packetbuf.o)
 .text          0x0000000000000000        0x0 contiki-wismote.a(linkaddr.o)
 .data          0x0000000000000000        0x0 contiki-wismote.a(linkaddr.o)
 .bss           0x0000000000000000        0x0 contiki-wismote.a(linkaddr.o)
 .text          0x0000000000000000        0x0 contiki-wismote.a(nullmac.o)
 .data          0x0000000000000000        0x0 contiki-wismote.a(nullmac.o)
 .bss           0x0000000000000000        0x0 contiki-wismote.a(nullmac.o)
 .text          0x0000000000000000        0x0 contiki-wismote.a(nullrdc.o)
 .data          0x0000000000000000        0x0 contiki-wismote.a(nullrdc.o)
 .bss           0x0000000000000000        0x0 contiki-wismote.a(nullrdc.o)
 .text          0x0000000000000000        0x0 contiki-wismote.a(framer-802154.o)
 .data          0x0000000000000000        0x0 contiki-wismote.a(framer-802154.o)
 .bss           0x0000000000000000        0x0 contiki-wismote.a(framer-802154.o)
 .text          0x0000000000000000        0x0 contiki-wismote.a(frame802154.o)
 .data          0x0000000000000000        0x0 contiki-wismote.a(frame802154.o)
 .bss           0x0000000000000000        0x0 contiki-wismote.a(frame802154.o)
 .text          0x0000000000000000        0x0 contiki-wismote.a(mac.o)
 .data          0x0000000000000000        0x0 contiki-wismote.a(mac.o)
 .bss           0x0000000000000000        0x0 contiki-wismote.a(mac.o)
 .text          0x0000000000000000        0x0 contiki-wismote.a(framer.o)
 .data          0x0000000000000000        0x0 contiki-wismote.a(framer.o)
 .bss           0x0000000000000000        0x0 contiki-wismote.a(framer.o)
 .text          0x0000000000000000        0x0 contiki-wismote.a(nullsec.o)
 .data          0x0000000000000000        0x0 contiki-wismote.a(nullsec.o)
 .bss           0x0000000000000000        0x0 contiki-wismote.a(nullsec.o)
 .text          0x0000000000000000        0x0 contiki-wismote.a(spi.o)
 .data          0x0000000000000000        0x0 contiki-wismote.a(spi.o)
 .bss           0x0000000000000000        0x0 contiki-wismote.a(spi.o)
 .bss.spi_busy  0x0000000000000000        0x1 contiki-wismote.a(spi.o)
 .text          0x0000000000000000        0x0 contiki-wismote.a(stimer.o)
 .data          0x0000000000000000        0x0 contiki-wismote.a(stimer.o)
 .bss           0x0000000000000000        0x0 contiki-wismote.a(stimer.o)
 .any.text.stimer_reset
                0x0000000000000000        0xe contiki-wismote.a(stimer.o)
 .any.text.stimer_restart
                0x0000000000000000       0x14 contiki-wismote.a(stimer.o)
 .any.text.stimer_remaining
                0x0000000000000000       0x24 contiki-wismote.a(stimer.o)
 .any.text.stimer_elapsed
                0x0000000000000000       0x12 contiki-wismote.a(stimer.o)
 .text          0x0000000000000000        0x0 contiki-wismote.a(uip-icmp6.o)
 .data          0x0000000000000000        0x0 contiki-wismote.a(uip-icmp6.o)
 .bss           0x0000000000000000        0x0 contiki-wismote.a(uip-icmp6.o)
 .any.text.uip_icmp6_echo_reply_callback_add
                0x0000000000000000       0x18 contiki-wismote.a(uip-icmp6.o)
 .any.text.uip_icmp6_echo_reply_callback_rm
                0x0000000000000000        0xc contiki-wismote.a(uip-icmp6.o)
 .text          0x0000000000000000        0x0 contiki-wismote.a(rpl-icmp6.o)
 .data          0x0000000000000000        0x0 contiki-wismote.a(rpl-icmp6.o)
 .bss           0x0000000000000000        0x0 contiki-wismote.a(rpl-icmp6.o)
 .text          0x0000000000000000        0x0 contiki-wismote.a(rpl-timers.o)
 .data          0x0000000000000000        0x0 contiki-wismote.a(rpl-timers.o)
 .bss           0x0000000000000000        0x0 contiki-wismote.a(rpl-timers.o)
 .any.text.rpl_schedule_dao_immediately
                0x0000000000000000        0xa contiki-wismote.a(rpl-timers.o)
 .any.text.rpl_cancel_dao
                0x0000000000000000       0x1a contiki-wismote.a(rpl-timers.o)
 .text          0x0000000000000000        0x0 contiki-wismote.a(mac-sequence.o)
 .data          0x0000000000000000        0x0 contiki-wismote.a(mac-sequence.o)
 .bss           0x0000000000000000        0x0 contiki-wismote.a(mac-sequence.o)
 .text          0x0000000000000000        0x0 /opt/compilers/mspgcc-4.7.3/bin/../lib/gcc/msp430/4.7.3/mcpu-430x/mmpy-16/msr20/mc20/libgcc.a(_udivmod16.o)
 .data          0x0000000000000000        0x0 /opt/compilers/mspgcc-4.7.3/bin/../lib/gcc/msp430/4.7.3/mcpu-430x/mmpy-16/msr20/mc20/libgcc.a(_udivmod16.o)
 .bss           0x0000000000000000        0x0 /opt/compilers/mspgcc-4.7.3/bin/../lib/gcc/msp430/4.7.3/mcpu-430x/mmpy-16/msr20/mc20/libgcc.a(_udivmod16.o)
 .text          0x0000000000000000        0x0 /opt/compilers/mspgcc-4.7.3/bin/../lib/gcc/msp430/4.7.3/mcpu-430x/mmpy-16/msr20/mc20/libgcc.a(_divmod16.o)
 .data          0x0000000000000000        0x0 /opt/compilers/mspgcc-4.7.3/bin/../lib/gcc/msp430/4.7.3/mcpu-430x/mmpy-16/msr20/mc20/libgcc.a(_divmod16.o)
 .bss           0x0000000000000000        0x0 /opt/compilers/mspgcc-4.7.3/bin/../lib/gcc/msp430/4.7.3/mcpu-430x/mmpy-16/msr20/mc20/libgcc.a(_divmod16.o)
 .text          0x0000000000000000        0x0 /opt/compilers/mspgcc-4.7.3/bin/../lib/gcc/msp430/4.7.3/mcpu-430x/mmpy-16/msr20/mc20/libgcc.a(_udivmod32.o)
 .data          0x0000000000000000        0x0 /opt/compilers/mspgcc-4.7.3/bin/../lib/gcc/msp430/4.7.3/mcpu-430x/mmpy-16/msr20/mc20/libgcc.a(_udivmod32.o)
 .bss           0x0000000000000000        0x0 /opt/compilers/mspgcc-4.7.3/bin/../lib/gcc/msp430/4.7.3/mcpu-430x/mmpy-16/msr20/mc20/libgcc.a(_udivmod32.o)
 .text          0x0000000000000000        0x0 /opt/compilers/mspgcc-4.7.3/bin/../lib/gcc/msp430/4.7.3/mcpu-430x/mmpy-16/msr20/mc20/libgcc.a(_divmod32.o)
 .data          0x0000000000000000        0x0 /opt/compilers/mspgcc-4.7.3/bin/../lib/gcc/msp430/4.7.3/mcpu-430x/mmpy-16/msr20/mc20/libgcc.a(_divmod32.o)
 .bss           0x0000000000000000        0x0 /opt/compilers/mspgcc-4.7.3/bin/../lib/gcc/msp430/4.7.3/mcpu-430x/mmpy-16/msr20/mc20/libgcc.a(_divmod32.o)
 .text          0x0000000000000000        0x0 /opt/compilers/mspgcc-4.7.3/bin/../lib/gcc/msp430/4.7.3/../../../../msp430/lib/mcpu-430x/mmpy-16/msr20/mc20/libc.a(malloc.o)
 .data          0x0000000000000000        0x0 /opt/compilers/mspgcc-4.7.3/bin/../lib/gcc/msp430/4.7.3/../../../../msp430/lib/mcpu-430x/mmpy-16/msr20/mc20/libc.a(malloc.o)
 .bss           0x0000000000000000        0x0 /opt/compilers/mspgcc-4.7.3/bin/../lib/gcc/msp430/4.7.3/../../../../msp430/lib/mcpu-430x/mmpy-16/msr20/mc20/libc.a(malloc.o)
 .text          0x0000000000000000        0x0 /opt/compilers/mspgcc-4.7.3/bin/../lib/gcc/msp430/4.7.3/../../../../msp430/lib/mcpu-430x/mmpy-16/msr20/mc20/libc.a(atoi.o)
 .data          0x0000000000000000        0x0 /opt/compilers/mspgcc-4.7.3/bin/../lib/gcc/msp430/4.7.3/../../../../msp430/lib/mcpu-430x/mmpy-16/msr20/mc20/libc.a(atoi.o)
 .bss           0x0000000000000000        0x0 /opt/compilers/mspgcc-4.7.3/bin/../lib/gcc/msp430/4.7.3/../../../../msp430/lib/mcpu-430x/mmpy-16/msr20/mc20/libc.a(atoi.o)
 .text          0x0000000000000000        0x0 /opt/compilers/mspgcc-4.7.3/bin/../lib/gcc/msp430/4.7.3/../../../../msp430/lib/mcpu-430x/mmpy-16/msr20/mc20/libc.a(strtoul.o)
 .data          0x0000000000000000        0x0 /opt/compilers/mspgcc-4.7.3/bin/../lib/gcc/msp430/4.7.3/../../../../msp430/lib/mcpu-430x/mmpy-16/msr20/mc20/libc.a(strtoul.o)
 .bss           0x0000000000000000        0x0 /opt/compilers/mspgcc-4.7.3/bin/../lib/gcc/msp430/4.7.3/../../../../msp430/lib/mcpu-430x/mmpy-16/msr20/mc20/libc.a(strtoul.o)
 .text          0x0000000000000000        0x0 /opt/compilers/mspgcc-4.7.3/bin/../lib/gcc/msp430/4.7.3/../../../../msp430/lib/mcpu-430x/mmpy-16/msr20/mc20/libc.a(printf.o)
 .data          0x0000000000000000        0x0 /opt/compilers/mspgcc-4.7.3/bin/../lib/gcc/msp430/4.7.3/../../../../msp430/lib/mcpu-430x/mmpy-16/msr20/mc20/libc.a(printf.o)
 .bss           0x0000000000000000        0x0 /opt/compilers/mspgcc-4.7.3/bin/../lib/gcc/msp430/4.7.3/../../../../msp430/lib/mcpu-430x/mmpy-16/msr20/mc20/libc.a(printf.o)
 .any.text.vprintf
                0x0000000000000000        0xe /opt/compilers/mspgcc-4.7.3/bin/../lib/gcc/msp430/4.7.3/../../../../msp430/lib/mcpu-430x/mmpy-16/msr20/mc20/libc.a(printf.o)
 .text          0x0000000000000000        0x0 /opt/compilers/mspgcc-4.7.3/bin/../lib/gcc/msp430/4.7.3/../../../../msp430/lib/mcpu-430x/mmpy-16/msr20/mc20/libc.a(sprintf.o)
 .data          0x0000000000000000        0x0 /opt/compilers/mspgcc-4.7.3/bin/../lib/gcc/msp430/4.7.3/../../../../msp430/lib/mcpu-430x/mmpy-16/msr20/mc20/libc.a(sprintf.o)
 .bss           0x0000000000000000        0x0 /opt/compilers/mspgcc-4.7.3/bin/../lib/gcc/msp430/4.7.3/../../../../msp430/lib/mcpu-430x/mmpy-16/msr20/mc20/libc.a(sprintf.o)
 .any.text.sprintf
                0x0000000000000000       0x1a /opt/compilers/mspgcc-4.7.3/bin/../lib/gcc/msp430/4.7.3/../../../../msp430/lib/mcpu-430x/mmpy-16/msr20/mc20/libc.a(sprintf.o)
 .any.text.vsprintf
                0x0000000000000000       0x16 /opt/compilers/mspgcc-4.7.3/bin/../lib/gcc/msp430/4.7.3/../../../../msp430/lib/mcpu-430x/mmpy-16/msr20/mc20/libc.a(sprintf.o)
 .any.text.vsnprintf
                0x0000000000000000       0x12 /opt/compilers/mspgcc-4.7.3/bin/../lib/gcc/msp430/4.7.3/../../../../msp430/lib/mcpu-430x/mmpy-16/msr20/mc20/libc.a(sprintf.o)
 .text          0x0000000000000000        0x0 /opt/compilers/mspgcc-4.7.3/bin/../lib/gcc/msp430/4.7.3/../../../../msp430/lib/mcpu-430x/mmpy-16/msr20/mc20/libc.a(vuprintf.o)
 .data          0x0000000000000000        0x0 /opt/compilers/mspgcc-4.7.3/bin/../lib/gcc/msp430/4.7.3/../../../../msp430/lib/mcpu-430x/mmpy-16/msr20/mc20/libc.a(vuprintf.o)
 .bss           0x0000000000000000        0x0 /opt/compilers/mspgcc-4.7.3/bin/../lib/gcc/msp430/4.7.3/../../../../msp430/lib/mcpu-430x/mmpy-16/msr20/mc20/libc.a(vuprintf.o)
 .text          0x0000000000000000        0x0 /opt/compilers/mspgcc-4.7.3/bin/../lib/gcc/msp430/4.7.3/../../../../msp430/lib/mcpu-430x/mmpy-16/msr20/mc20/libc.a(puts.o)
 .data          0x0000000000000000        0x0 /opt/compilers/mspgcc-4.7.3/bin/../lib/gcc/msp430/4.7.3/../../../../msp430/lib/mcpu-430x/mmpy-16/msr20/mc20/libc.a(puts.o)
 .bss           0x0000000000000000        0x0 /opt/compilers/mspgcc-4.7.3/bin/../lib/gcc/msp430/4.7.3/../../../../msp430/lib/mcpu-430x/mmpy-16/msr20/mc20/libc.a(puts.o)
 .text          0x0000000000000000        0x0 /opt/compilers/mspgcc-4.7.3/bin/../lib/gcc/msp430/4.7.3/../../../../msp430/lib/mcpu-430x/mmpy-16/msr20/mc20/libc.a(rand.o)
 .data          0x0000000000000000        0x0 /opt/compilers/mspgcc-4.7.3/bin/../lib/gcc/msp430/4.7.3/../../../../msp430/lib/mcpu-430x/mmpy-16/msr20/mc20/libc.a(rand.o)
 .bss           0x0000000000000000        0x0 /opt/compilers/mspgcc-4.7.3/bin/../lib/gcc/msp430/4.7.3/../../../../msp430/lib/mcpu-430x/mmpy-16/msr20/mc20/libc.a(rand.o)
 .any.text.rand_r
                0x0000000000000000       0x24 /opt/compilers/mspgcc-4.7.3/bin/../lib/gcc/msp430/4.7.3/../../../../msp430/lib/mcpu-430x/mmpy-16/msr20/mc20/libc.a(rand.o)
 .any.text.srand
                0x0000000000000000        0xa /opt/compilers/mspgcc-4.7.3/bin/../lib/gcc/msp430/4.7.3/../../../../msp430/lib/mcpu-430x/mmpy-16/msr20/mc20/libc.a(rand.o)
 .text          0x0000000000000000        0x0 /opt/compilers/mspgcc-4.7.3/bin/../lib/gcc/msp430/4.7.3/../../../../msp430/lib/mcpu-430x/mmpy-16/msr20/mc20/libc.a(strchr.o)
 .data          0x0000000000000000        0x0 /opt/compilers/mspgcc-4.7.3/bin/../lib/gcc/msp430/4.7.3/../../../../msp430/lib/mcpu-430x/mmpy-16/msr20/mc20/libc.a(strchr.o)
 .bss           0x0000000000000000        0x0 /opt/compilers/mspgcc-4.7.3/bin/../lib/gcc/msp430/4.7.3/../../../../msp430/lib/mcpu-430x/mmpy-16/msr20/mc20/libc.a(strchr.o)
 .text          0x0000000000000000        0x0 /opt/compilers/mspgcc-4.7.3/bin/../lib/gcc/msp430/4.7.3/../../../../msp430/lib/mcpu-430x/mmpy-16/msr20/mc20/libc.a(memchr.o)
 .data          0x0000000000000000        0x0 /opt/compilers/mspgcc-4.7.3/bin/../lib/gcc/msp430/4.7.3/../../../../msp430/lib/mcpu-430x/mmpy-16/msr20/mc20/libc.a(memchr.o)
 .bss           0x0000000000000000        0x0 /opt/compilers/mspgcc-4.7.3/bin/../lib/gcc/msp430/4.7.3/../../../../msp430/lib/mcpu-430x/mmpy-16/msr20/mc20/libc.a(memchr.o)
 .text          0x0000000000000000        0x0 /opt/compilers/mspgcc-4.7.3/bin/../lib/gcc/msp430/4.7.3/../../../../msp430/lib/mcpu-430x/mmpy-16/msr20/mc20/libc.a(strncmp.o)
 .data          0x0000000000000000        0x0 /opt/compilers/mspgcc-4.7.3/bin/../lib/gcc/msp430/4.7.3/../../../../msp430/lib/mcpu-430x/mmpy-16/msr20/mc20/libc.a(strncmp.o)
 .bss           0x0000000000000000        0x0 /opt/compilers/mspgcc-4.7.3/bin/../lib/gcc/msp430/4.7.3/../../../../msp430/lib/mcpu-430x/mmpy-16/msr20/mc20/libc.a(strncmp.o)
 .text          0x0000000000000000        0x0 /opt/compilers/mspgcc-4.7.3/bin/../lib/gcc/msp430/4.7.3/../../../../msp430/lib/mcpu-430x/mmpy-16/msr20/mc20/libc.a(memcmp.o)
 .data          0x0000000000000000        0x0 /opt/compilers/mspgcc-4.7.3/bin/../lib/gcc/msp430/4.7.3/../../../../msp430/lib/mcpu-430x/mmpy-16/msr20/mc20/libc.a(memcmp.o)
 .bss           0x0000000000000000        0x0 /opt/compilers/mspgcc-4.7.3/bin/../lib/gcc/msp430/4.7.3/../../../../msp430/lib/mcpu-430x/mmpy-16/msr20/mc20/libc.a(memcmp.o)
 .text          0x0000000000000000        0x0 /opt/compilers/mspgcc-4.7.3/bin/../lib/gcc/msp430/4.7.3/../../../../msp430/lib/mcpu-430x/mmpy-16/msr20/mc20/libc.a(memcpy.o)
 .data          0x0000000000000000        0x0 /opt/compilers/mspgcc-4.7.3/bin/../lib/gcc/msp430/4.7.3/../../../../msp430/lib/mcpu-430x/mmpy-16/msr20/mc20/libc.a(memcpy.o)
 .bss           0x0000000000000000        0x0 /opt/compilers/mspgcc-4.7.3/bin/../lib/gcc/msp430/4.7.3/../../../../msp430/lib/mcpu-430x/mmpy-16/msr20/mc20/libc.a(memcpy.o)
 .text          0x0000000000000000        0x0 /opt/compilers/mspgcc-4.7.3/bin/../lib/gcc/msp430/4.7.3/../../../../msp430/lib/mcpu-430x/mmpy-16/msr20/mc20/libc.a(memmove.o)
 .data          0x0000000000000000        0x0 /opt/compilers/mspgcc-4.7.3/bin/../lib/gcc/msp430/4.7.3/../../../../msp430/lib/mcpu-430x/mmpy-16/msr20/mc20/libc.a(memmove.o)
 .bss           0x0000000000000000        0x0 /opt/compilers/mspgcc-4.7.3/bin/../lib/gcc/msp430/4.7.3/../../../../msp430/lib/mcpu-430x/mmpy-16/msr20/mc20/libc.a(memmove.o)
 .text          0x0000000000000000        0x0 /opt/compilers/mspgcc-4.7.3/bin/../lib/gcc/msp430/4.7.3/../../../../msp430/lib/mcpu-430x/mmpy-16/msr20/mc20/libc.a(memset.o)
 .data          0x0000000000000000        0x0 /opt/compilers/mspgcc-4.7.3/bin/../lib/gcc/msp430/4.7.3/../../../../msp430/lib/mcpu-430x/mmpy-16/msr20/mc20/libc.a(memset.o)
 .bss           0x0000000000000000        0x0 /opt/compilers/mspgcc-4.7.3/bin/../lib/gcc/msp430/4.7.3/../../../../msp430/lib/mcpu-430x/mmpy-16/msr20/mc20/libc.a(memset.o)
 .text          0x0000000000000000        0x0 /opt/compilers/mspgcc-4.7.3/bin/../lib/gcc/msp430/4.7.3/../../../../msp430/lib/mcpu-430x/mmpy-16/msr20/mc20/libc.a(strcat.o)
 .data          0x0000000000000000        0x0 /opt/compilers/mspgcc-4.7.3/bin/../lib/gcc/msp430/4.7.3/../../../../msp430/lib/mcpu-430x/mmpy-16/msr20/mc20/libc.a(strcat.o)
 .bss           0x0000000000000000        0x0 /opt/compilers/mspgcc-4.7.3/bin/../lib/gcc/msp430/4.7.3/../../../../msp430/lib/mcpu-430x/mmpy-16/msr20/mc20/libc.a(strcat.o)
 .text          0x0000000000000000        0x0 /opt/compilers/mspgcc-4.7.3/bin/../lib/gcc/msp430/4.7.3/../../../../msp430/lib/mcpu-430x/mmpy-16/msr20/mc20/libc.a(errno.o)
 .data          0x0000000000000000        0x0 /opt/compilers/mspgcc-4.7.3/bin/../lib/gcc/msp430/4.7.3/../../../../msp430/lib/mcpu-430x/mmpy-16/msr20/mc20/libc.a(errno.o)
 .bss           0x0000000000000000        0x0 /opt/compilers/mspgcc-4.7.3/bin/../lib/gcc/msp430/4.7.3/../../../../msp430/lib/mcpu-430x/mmpy-16/msr20/mc20/libc.a(errno.o)
 .text          0x0000000000000000        0x0 /opt/compilers/mspgcc-4.7.3/bin/../lib/gcc/msp430/4.7.3/mcpu-430x/mmpy-16/msr20/mc20/libgcc.a(_mulsi3.o)
 .data          0x0000000000000000        0x0 /opt/compilers/mspgcc-4.7.3/bin/../lib/gcc/msp430/4.7.3/mcpu-430x/mmpy-16/msr20/mc20/libgcc.a(_mulsi3.o)
 .bss           0x0000000000000000        0x0 /opt/compilers/mspgcc-4.7.3/bin/../lib/gcc/msp430/4.7.3/mcpu-430x/mmpy-16/msr20/mc20/libgcc.a(_mulsi3.o)
 .text          0x0000000000000000        0x0 /opt/compilers/mspgcc-4.7.3/bin/../lib/gcc/msp430/4.7.3/mcpu-430x/mmpy-16/msr20/mc20/libgcc.a(_udivmod64.o)
 .data          0x0000000000000000        0x0 /opt/compilers/mspgcc-4.7.3/bin/../lib/gcc/msp430/4.7.3/mcpu-430x/mmpy-16/msr20/mc20/libgcc.a(_udivmod64.o)
 .bss           0x0000000000000000        0x0 /opt/compilers/mspgcc-4.7.3/bin/../lib/gcc/msp430/4.7.3/mcpu-430x/mmpy-16/msr20/mc20/libgcc.a(_udivmod64.o)
 .text          0x0000000000000000        0x0 /opt/compilers/mspgcc-4.7.3/bin/../lib/gcc/msp430/4.7.3/mcpu-430x/mmpy-16/msr20/mc20/libcrt0.a(_reset_vector__.o)
 .data          0x0000000000000000        0x0 /opt/compilers/mspgcc-4.7.3/bin/../lib/gcc/msp430/4.7.3/mcpu-430x/mmpy-16/msr20/mc20/libcrt0.a(_reset_vector__.o)
 .bss           0x0000000000000000        0x0 /opt/compilers/mspgcc-4.7.3/bin/../lib/gcc/msp430/4.7.3/mcpu-430x/mmpy-16/msr20/mc20/libcrt0.a(_reset_vector__.o)
 .text          0x0000000000000000        0x0 /opt/compilers/mspgcc-4.7.3/bin/../lib/gcc/msp430/4.7.3/mcpu-430x/mmpy-16/msr20/mc20/libcrt0.a(__watchdog_support.o)
 .data          0x0000000000000000        0x0 /opt/compilers/mspgcc-4.7.3/bin/../lib/gcc/msp430/4.7.3/mcpu-430x/mmpy-16/msr20/mc20/libcrt0.a(__watchdog_support.o)
 .bss           0x0000000000000000        0x0 /opt/compilers/mspgcc-4.7.3/bin/../lib/gcc/msp430/4.7.3/mcpu-430x/mmpy-16/msr20/mc20/libcrt0.a(__watchdog_support.o)
 .text          0x0000000000000000        0x0 /opt/compilers/mspgcc-4.7.3/bin/../lib/gcc/msp430/4.7.3/mcpu-430x/mmpy-16/msr20/mc20/libcrt0.a(__init_stack.o)
 .data          0x0000000000000000        0x0 /opt/compilers/mspgcc-4.7.3/bin/../lib/gcc/msp430/4.7.3/mcpu-430x/mmpy-16/msr20/mc20/libcrt0.a(__init_stack.o)
 .bss           0x0000000000000000        0x0 /opt/compilers/mspgcc-4.7.3/bin/../lib/gcc/msp430/4.7.3/mcpu-430x/mmpy-16/msr20/mc20/libcrt0.a(__init_stack.o)
 .text          0x0000000000000000        0x0 /opt/compilers/mspgcc-4.7.3/bin/../lib/gcc/msp430/4.7.3/mcpu-430x/mmpy-16/msr20/mc20/libcrt0.a(__low_level_init.o)
 .data          0x0000000000000000        0x0 /opt/compilers/mspgcc-4.7.3/bin/../lib/gcc/msp430/4.7.3/mcpu-430x/mmpy-16/msr20/mc20/libcrt0.a(__low_level_init.o)
 .bss           0x0000000000000000        0x0 /opt/compilers/mspgcc-4.7.3/bin/../lib/gcc/msp430/4.7.3/mcpu-430x/mmpy-16/msr20/mc20/libcrt0.a(__low_level_init.o)
 .text          0x0000000000000000        0x0 /opt/compilers/mspgcc-4.7.3/bin/../lib/gcc/msp430/4.7.3/mcpu-430x/mmpy-16/msr20/mc20/libcrt0.a(_copy_data.o)
 .data          0x0000000000000000        0x0 /opt/compilers/mspgcc-4.7.3/bin/../lib/gcc/msp430/4.7.3/mcpu-430x/mmpy-16/msr20/mc20/libcrt0.a(_copy_data.o)
 .bss           0x0000000000000000        0x0 /opt/compilers/mspgcc-4.7.3/bin/../lib/gcc/msp430/4.7.3/mcpu-430x/mmpy-16/msr20/mc20/libcrt0.a(_copy_data.o)
 .text          0x0000000000000000        0x0 /opt/compilers/mspgcc-4.7.3/bin/../lib/gcc/msp430/4.7.3/mcpu-430x/mmpy-16/msr20/mc20/libcrt0.a(_clear_bss.o)
 .data          0x0000000000000000        0x0 /opt/compilers/mspgcc-4.7.3/bin/../lib/gcc/msp430/4.7.3/mcpu-430x/mmpy-16/msr20/mc20/libcrt0.a(_clear_bss.o)
 .bss           0x0000000000000000        0x0 /opt/compilers/mspgcc-4.7.3/bin/../lib/gcc/msp430/4.7.3/mcpu-430x/mmpy-16/msr20/mc20/libcrt0.a(_clear_bss.o)
 .text          0x0000000000000000        0x0 /opt/compilers/mspgcc-4.7.3/bin/../lib/gcc/msp430/4.7.3/mcpu-430x/mmpy-16/msr20/mc20/libcrt0.a(__stop_progExec__.o)
 .data          0x0000000000000000        0x0 /opt/compilers/mspgcc-4.7.3/bin/../lib/gcc/msp430/4.7.3/mcpu-430x/mmpy-16/msr20/mc20/libcrt0.a(__stop_progExec__.o)
 .bss           0x0000000000000000        0x0 /opt/compilers/mspgcc-4.7.3/bin/../lib/gcc/msp430/4.7.3/mcpu-430x/mmpy-16/msr20/mc20/libcrt0.a(__stop_progExec__.o)
 .text          0x0000000000000000        0x0 /opt/compilers/mspgcc-4.7.3/bin/../lib/gcc/msp430/4.7.3/mcpu-430x/mmpy-16/msr20/mc20/libcrt0.a(_endless_loop__.o)
 .data          0x0000000000000000        0x0 /opt/compilers/mspgcc-4.7.3/bin/../lib/gcc/msp430/4.7.3/mcpu-430x/mmpy-16/msr20/mc20/libcrt0.a(_endless_loop__.o)
 .bss           0x0000000000000000        0x0 /opt/compilers/mspgcc-4.7.3/bin/../lib/gcc/msp430/4.7.3/mcpu-430x/mmpy-16/msr20/mc20/libcrt0.a(_endless_loop__.o)
 .text          0x0000000000000000        0x0 /opt/compilers/mspgcc-4.7.3/bin/../lib/gcc/msp430/4.7.3/mcpu-430x/mmpy-16/msr20/mc20/libcrt0.a(_unexpected_.o)
 .data          0x0000000000000000        0x0 /opt/compilers/mspgcc-4.7.3/bin/../lib/gcc/msp430/4.7.3/mcpu-430x/mmpy-16/msr20/mc20/libcrt0.a(_unexpected_.o)
 .bss           0x0000000000000000        0x0 /opt/compilers/mspgcc-4.7.3/bin/../lib/gcc/msp430/4.7.3/mcpu-430x/mmpy-16/msr20/mc20/libcrt0.a(_unexpected_.o)

Memory Configuration

Name             Origin             Length             Attributes
sfr              0x0000000000000000 0x0000000000000010
peripheral_8bit  0x0000000000000010 0x00000000000000f0
peripheral_16bit 0x0000000000000100 0x0000000000000100
bsl              0x0000000000001000 0x0000000000000800
infomem          0x0000000000001800 0x0000000000000200
infod            0x0000000000001800 0x0000000000000080
infoc            0x0000000000001880 0x0000000000000080
infob            0x0000000000001900 0x0000000000000080
infoa            0x0000000000001980 0x0000000000000080
ram              0x0000000000001c00 0x0000000000004000 xw
rom              0x0000000000005c00 0x000000000000a380 xr
vectors          0x000000000000ff80 0x0000000000000080
far_rom          0x0000000000010000 0x0000000000035c00
ram2             0x0000000000000000 0x0000000000000000 xw
ram_mirror       0x0000000000000000 0x0000000000000000 xw
usbram           0x0000000000000000 0x0000000000000000 xw
*default*        0x0000000000000000 0xffffffffffffffff

Linker script and memory map

LOAD /opt/compilers/mspgcc-4.7.3/bin/../lib/gcc/msp430/4.7.3/mcpu-430x/mmpy-16/msr20/mc20/crt0ivtbl64.o
LOAD park.co
LOAD obj_wismote/parkevent.o
LOAD obj_wismote/dataLayer.o
LOAD obj_wismote/data.o
LOAD obj_wismote/helpers.o
LOAD obj_wismote/contiki-wismote-main.o
LOAD contiki-wismote.a
LOAD /opt/compilers/mspgcc-4.7.3/bin/../lib/gcc/msp430/4.7.3/mcpu-430x/mmpy-16/msr20/mc20/libgcc.a
LOAD /opt/compilers/mspgcc-4.7.3/bin/../lib/gcc/msp430/4.7.3/../../../../msp430/lib/mcpu-430x/mmpy-16/msr20/mc20/libc.a
LOAD /opt/compilers/mspgcc-4.7.3/bin/../lib/gcc/msp430/4.7.3/mcpu-430x/mmpy-16/msr20/mc20/libgcc.a
LOAD /opt/compilers/mspgcc-4.7.3/bin/../lib/gcc/msp430/4.7.3/mcpu-430x/mmpy-16/msr20/mc20/libcrt0.a
                0x0000000000000080                PROVIDE (__info_segment_size, 0x80)
                0x0000000000001800                PROVIDE (__infod, 0x1800)
                0x0000000000001880                PROVIDE (__infoc, 0x1880)
                0x0000000000001900                PROVIDE (__infob, 0x1900)
                0x0000000000001980                PROVIDE (__infoa, 0x1980)
                0x0000000000000700                __ADC12CTL0_L = 0x700
                0x0000000000000701                __ADC12CTL0_H = 0x701
                0x0000000000000700                __ADC12CTL0 = 0x700
                0x0000000000000702                __ADC12CTL1_L = 0x702
                0x0000000000000703                __ADC12CTL1_H = 0x703
                0x0000000000000702                __ADC12CTL1 = 0x702
                0x0000000000000704                __ADC12CTL2_L = 0x704
                0x0000000000000705                __ADC12CTL2_H = 0x705
                0x0000000000000704                __ADC12CTL2 = 0x704
                0x000000000000070a                __ADC12IFG_L = 0x70a
                0x000000000000070b                __ADC12IFG_H = 0x70b
                0x000000000000070a                __ADC12IFG = 0x70a
                0x000000000000070c                __ADC12IE_L = 0x70c
                0x000000000000070d                __ADC12IE_H = 0x70d
                0x000000000000070c                __ADC12IE = 0x70c
                0x000000000000070e                __ADC12IV_L = 0x70e
                0x000000000000070f                __ADC12IV_H = 0x70f
                0x000000000000070e                __ADC12IV = 0x70e
                0x0000000000000720                __ADC12MEM0_L = 0x720
                0x0000000000000721                __ADC12MEM0_H = 0x721
                0x0000000000000720                __ADC12MEM0 = 0x720
                0x0000000000000722                __ADC12MEM1_L = 0x722
                0x0000000000000723                __ADC12MEM1_H = 0x723
                0x0000000000000722                __ADC12MEM1 = 0x722
                0x0000000000000724                __ADC12MEM2_L = 0x724
                0x0000000000000725                __ADC12MEM2_H = 0x725
                0x0000000000000724                __ADC12MEM2 = 0x724
                0x0000000000000726                __ADC12MEM3_L = 0x726
                0x0000000000000727                __ADC12MEM3_H = 0x727
                0x0000000000000726                __ADC12MEM3 = 0x726
                0x0000000000000728                __ADC12MEM4_L = 0x728
                0x0000000000000729                __ADC12MEM4_H = 0x729
                0x0000000000000728                __ADC12MEM4 = 0x728
                0x000000000000072a                __ADC12MEM5_L = 0x72a
                0x000000000000072b                __ADC12MEM5_H = 0x72b
                0x000000000000072a                __ADC12MEM5 = 0x72a
                0x000000000000072c                __ADC12MEM6_L = 0x72c
                0x000000000000072d                __ADC12MEM6_H = 0x72d
                0x000000000000072c                __ADC12MEM6 = 0x72c
                0x000000000000072e                __ADC12MEM7_L = 0x72e
                0x000000000000072f                __ADC12MEM7_H = 0x72f
                0x000000000000072e                __ADC12MEM7 = 0x72e
                0x0000000000000730                __ADC12MEM8_L = 0x730
                0x0000000000000731                __ADC12MEM8_H = 0x731
                0x0000000000000730                __ADC12MEM8 = 0x730
                0x0000000000000732                __ADC12MEM9_L = 0x732
                0x0000000000000733                __ADC12MEM9_H = 0x733
                0x0000000000000732                __ADC12MEM9 = 0x732
                0x0000000000000734                __ADC12MEM10_L = 0x734
                0x0000000000000735                __ADC12MEM10_H = 0x735
                0x0000000000000734                __ADC12MEM10 = 0x734
                0x0000000000000736                __ADC12MEM11_L = 0x736
                0x0000000000000737                __ADC12MEM11_H = 0x737
                0x0000000000000736                __ADC12MEM11 = 0x736
                0x0000000000000738                __ADC12MEM12_L = 0x738
                0x0000000000000739                __ADC12MEM12_H = 0x739
                0x0000000000000738                __ADC12MEM12 = 0x738
                0x000000000000073a                __ADC12MEM13_L = 0x73a
                0x000000000000073b                __ADC12MEM13_H = 0x73b
                0x000000000000073a                __ADC12MEM13 = 0x73a
                0x000000000000073c                __ADC12MEM14_L = 0x73c
                0x000000000000073d                __ADC12MEM14_H = 0x73d
                0x000000000000073c                __ADC12MEM14 = 0x73c
                0x000000000000073e                __ADC12MEM15_L = 0x73e
                0x000000000000073f                __ADC12MEM15_H = 0x73f
                0x000000000000073e                __ADC12MEM15 = 0x73e
                0x0000000000000710                __ADC12MCTL0 = 0x710
                0x0000000000000711                __ADC12MCTL1 = 0x711
                0x0000000000000712                __ADC12MCTL2 = 0x712
                0x0000000000000713                __ADC12MCTL3 = 0x713
                0x0000000000000714                __ADC12MCTL4 = 0x714
                0x0000000000000715                __ADC12MCTL5 = 0x715
                0x0000000000000716                __ADC12MCTL6 = 0x716
                0x0000000000000717                __ADC12MCTL7 = 0x717
                0x0000000000000718                __ADC12MCTL8 = 0x718
                0x0000000000000719                __ADC12MCTL9 = 0x719
                0x000000000000071a                __ADC12MCTL10 = 0x71a
                0x000000000000071b                __ADC12MCTL11 = 0x71b
                0x000000000000071c                __ADC12MCTL12 = 0x71c
                0x000000000000071d                __ADC12MCTL13 = 0x71d
                0x000000000000071e                __ADC12MCTL14 = 0x71e
                0x000000000000071f                __ADC12MCTL15 = 0x71f
                0x0000000000000150                __CRCDI_L = 0x150
                0x0000000000000151                __CRCDI_H = 0x151
                0x0000000000000150                __CRCDI = 0x150
                0x0000000000000154                __CRCINIRES_L = 0x154
                0x0000000000000155                __CRCINIRES_H = 0x155
                0x0000000000000154                __CRCINIRES = 0x154
                0x0000000000000500                __DMACTL0_L = 0x500
                0x0000000000000501                __DMACTL0_H = 0x501
                0x0000000000000500                __DMACTL0 = 0x500
                0x0000000000000502                __DMACTL1_L = 0x502
                0x0000000000000503                __DMACTL1_H = 0x503
                0x0000000000000502                __DMACTL1 = 0x502
                0x0000000000000504                __DMACTL2_L = 0x504
                0x0000000000000505                __DMACTL2_H = 0x505
                0x0000000000000504                __DMACTL2 = 0x504
                0x0000000000000506                __DMACTL3_L = 0x506
                0x0000000000000507                __DMACTL3_H = 0x507
                0x0000000000000506                __DMACTL3 = 0x506
                0x0000000000000508                __DMACTL4_L = 0x508
                0x0000000000000509                __DMACTL4_H = 0x509
                0x0000000000000508                __DMACTL4 = 0x508
                0x000000000000050e                __DMAIV_L = 0x50e
                0x000000000000050f                __DMAIV_H = 0x50f
                0x000000000000050e                __DMAIV = 0x50e
                0x0000000000000510                __DMA0CTL_L = 0x510
                0x0000000000000511                __DMA0CTL_H = 0x511
                0x0000000000000510                __DMA0CTL = 0x510
                0x0000000000000512                __DMA0SA = 0x512
                0x0000000000000516                __DMA0DA = 0x516
                0x000000000000051a                __DMA0SZ = 0x51a
                0x0000000000000520                __DMA1CTL_L = 0x520
                0x0000000000000521                __DMA1CTL_H = 0x521
                0x0000000000000520                __DMA1CTL = 0x520
                0x0000000000000522                __DMA1SA = 0x522
                0x0000000000000526                __DMA1DA = 0x526
                0x000000000000052a                __DMA1SZ = 0x52a
                0x0000000000000530                __DMA2CTL_L = 0x530
                0x0000000000000531                __DMA2CTL_H = 0x531
                0x0000000000000530                __DMA2CTL = 0x530
                0x0000000000000532                __DMA2SA = 0x532
                0x0000000000000536                __DMA2DA = 0x536
                0x000000000000053a                __DMA2SZ = 0x53a
                0x0000000000000140                __FCTL1_L = 0x140
                0x0000000000000141                __FCTL1_H = 0x141
                0x0000000000000140                __FCTL1 = 0x140
                0x0000000000000144                __FCTL3_L = 0x144
                0x0000000000000145                __FCTL3_H = 0x145
                0x0000000000000144                __FCTL3 = 0x144
                0x0000000000000146                __FCTL4_L = 0x146
                0x0000000000000147                __FCTL4_H = 0x147
                0x0000000000000146                __FCTL4 = 0x146
                0x00000000000004c0                __MPY_L = 0x4c0
                0x00000000000004c1                __MPY_H = 0x4c1
                0x00000000000004c0                __MPY = 0x4c0
                0x00000000000004c2                __MPYS_L = 0x4c2
                0x00000000000004c3                __MPYS_H = 0x4c3
                0x00000000000004c2                __MPYS = 0x4c2
                0x00000000000004c4                __MAC_L = 0x4c4
                0x00000000000004c5                __MAC_H = 0x4c5
                0x00000000000004c4                __MAC = 0x4c4
                0x00000000000004c6                __MACS_L = 0x4c6
                0x00000000000004c7                __MACS_H = 0x4c7
                0x00000000000004c6                __MACS = 0x4c6
                0x00000000000004c8                __OP2_L = 0x4c8
                0x00000000000004c9                __OP2_H = 0x4c9
                0x00000000000004c8                __OP2 = 0x4c8
                0x00000000000004ca                __RESLO_L = 0x4ca
                0x00000000000004cb                __RESLO_H = 0x4cb
                0x00000000000004ca                __RESLO = 0x4ca
                0x00000000000004cc                __RESHI_L = 0x4cc
                0x00000000000004cd                __RESHI_H = 0x4cd
                0x00000000000004cc                __RESHI = 0x4cc
                0x00000000000004ce                __SUMEXT_L = 0x4ce
                0x00000000000004cf                __SUMEXT_H = 0x4cf
                0x00000000000004ce                __SUMEXT = 0x4ce
                0x00000000000004d0                __MPY32L_L = 0x4d0
                0x00000000000004d1                __MPY32L_H = 0x4d1
                0x00000000000004d0                __MPY32L = 0x4d0
                0x00000000000004d2                __MPY32H_L = 0x4d2
                0x00000000000004d3                __MPY32H_H = 0x4d3
                0x00000000000004d2                __MPY32H = 0x4d2
                0x00000000000004d4                __MPYS32L_L = 0x4d4
                0x00000000000004d5                __MPYS32L_H = 0x4d5
                0x00000000000004d4                __MPYS32L = 0x4d4
                0x00000000000004d6                __MPYS32H_L = 0x4d6
                0x00000000000004d7                __MPYS32H_H = 0x4d7
                0x00000000000004d6                __MPYS32H = 0x4d6
                0x00000000000004d8                __MAC32L_L = 0x4d8
                0x00000000000004d9                __MAC32L_H = 0x4d9
                0x00000000000004d8                __MAC32L = 0x4d8
                0x00000000000004da                __MAC32H_L = 0x4da
                0x00000000000004db                __MAC32H_H = 0x4db
                0x00000000000004da                __MAC32H = 0x4da
                0x00000000000004dc                __MACS32L_L = 0x4dc
                0x00000000000004dd                __MACS32L_H = 0x4dd
                0x00000000000004dc                __MACS32L = 0x4dc
                0x00000000000004de                __MACS32H_L = 0x4de
                0x00000000000004df                __MACS32H_H = 0x4df
                0x00000000000004de                __MACS32H = 0x4de
                0x00000000000004e0                __OP2L_L = 0x4e0
                0x00000000000004e1                __OP2L_H = 0x4e1
                0x00000000000004e0                __OP2L = 0x4e0
                0x00000000000004e2                __OP2H_L = 0x4e2
                0x00000000000004e3                __OP2H_H = 0x4e3
                0x00000000000004e2                __OP2H = 0x4e2
                0x00000000000004e4                __RES0_L = 0x4e4
                0x00000000000004e5                __RES0_H = 0x4e5
                0x00000000000004e4                __RES0 = 0x4e4
                0x00000000000004e6                __RES1_L = 0x4e6
                0x00000000000004e7                __RES1_H = 0x4e7
                0x00000000000004e6                __RES1 = 0x4e6
                0x00000000000004e8                __RES2_L = 0x4e8
                0x00000000000004e9                __RES2_H = 0x4e9
                0x00000000000004e8                __RES2 = 0x4e8
                0x00000000000004ea                __RES3_L = 0x4ea
                0x00000000000004eb                __RES3_H = 0x4eb
                0x00000000000004ea                __RES3 = 0x4ea
                0x00000000000004ec                __MPY32CTL0_L = 0x4ec
                0x00000000000004ed                __MPY32CTL0_H = 0x4ed
                0x00000000000004ec                __MPY32CTL0 = 0x4ec
                0x0000000000000200                __PAIN_L = 0x200
                0x0000000000000201                __PAIN_H = 0x201
                0x0000000000000200                __PAIN = 0x200
                0x0000000000000202                __PAOUT_L = 0x202
                0x0000000000000203                __PAOUT_H = 0x203
                0x0000000000000202                __PAOUT = 0x202
                0x0000000000000204                __PADIR_L = 0x204
                0x0000000000000205                __PADIR_H = 0x205
                0x0000000000000204                __PADIR = 0x204
                0x0000000000000206                __PAREN_L = 0x206
                0x0000000000000207                __PAREN_H = 0x207
                0x0000000000000206                __PAREN = 0x206
                0x0000000000000208                __PADS_L = 0x208
                0x0000000000000209                __PADS_H = 0x209
                0x0000000000000208                __PADS = 0x208
                0x000000000000020a                __PASEL_L = 0x20a
                0x000000000000020b                __PASEL_H = 0x20b
                0x000000000000020a                __PASEL = 0x20a
                0x0000000000000218                __PAIES_L = 0x218
                0x0000000000000219                __PAIES_H = 0x219
                0x0000000000000218                __PAIES = 0x218
                0x000000000000021a                __PAIE_L = 0x21a
                0x000000000000021b                __PAIE_H = 0x21b
                0x000000000000021a                __PAIE = 0x21a
                0x000000000000021c                __PAIFG_L = 0x21c
                0x000000000000021d                __PAIFG_H = 0x21d
                0x000000000000021c                __PAIFG = 0x21c
                0x000000000000020e                __P1IV = 0x20e
                0x000000000000021e                __P2IV = 0x21e
                0x0000000000000220                __PBIN_L = 0x220
                0x0000000000000221                __PBIN_H = 0x221
                0x0000000000000220                __PBIN = 0x220
                0x0000000000000222                __PBOUT_L = 0x222
                0x0000000000000223                __PBOUT_H = 0x223
                0x0000000000000222                __PBOUT = 0x222
                0x0000000000000224                __PBDIR_L = 0x224
                0x0000000000000225                __PBDIR_H = 0x225
                0x0000000000000224                __PBDIR = 0x224
                0x0000000000000226                __PBREN_L = 0x226
                0x0000000000000227                __PBREN_H = 0x227
                0x0000000000000226                __PBREN = 0x226
                0x0000000000000228                __PBDS_L = 0x228
                0x0000000000000229                __PBDS_H = 0x229
                0x0000000000000228                __PBDS = 0x228
                0x000000000000022a                __PBSEL_L = 0x22a
                0x000000000000022b                __PBSEL_H = 0x22b
                0x000000000000022a                __PBSEL = 0x22a
                0x0000000000000240                __PCIN_L = 0x240
                0x0000000000000241                __PCIN_H = 0x241
                0x0000000000000240                __PCIN = 0x240
                0x0000000000000242                __PCOUT_L = 0x242
                0x0000000000000243                __PCOUT_H = 0x243
                0x0000000000000242                __PCOUT = 0x242
                0x0000000000000244                __PCDIR_L = 0x244
                0x0000000000000245                __PCDIR_H = 0x245
                0x0000000000000244                __PCDIR = 0x244
                0x0000000000000246                __PCREN_L = 0x246
                0x0000000000000247                __PCREN_H = 0x247
                0x0000000000000246                __PCREN = 0x246
                0x0000000000000248                __PCDS_L = 0x248
                0x0000000000000249                __PCDS_H = 0x249
                0x0000000000000248                __PCDS = 0x248
                0x000000000000024a                __PCSEL_L = 0x24a
                0x000000000000024b                __PCSEL_H = 0x24b
                0x000000000000024a                __PCSEL = 0x24a
                0x0000000000000260                __PDIN_L = 0x260
                0x0000000000000261                __PDIN_H = 0x261
                0x0000000000000260                __PDIN = 0x260
                0x0000000000000262                __PDOUT_L = 0x262
                0x0000000000000263                __PDOUT_H = 0x263
                0x0000000000000262                __PDOUT = 0x262
                0x0000000000000264                __PDDIR_L = 0x264
                0x0000000000000265                __PDDIR_H = 0x265
                0x0000000000000264                __PDDIR = 0x264
                0x0000000000000266                __PDREN_L = 0x266
                0x0000000000000267                __PDREN_H = 0x267
                0x0000000000000266                __PDREN = 0x266
                0x0000000000000268                __PDDS_L = 0x268
                0x0000000000000269                __PDDS_H = 0x269
                0x0000000000000268                __PDDS = 0x268
                0x000000000000026a                __PDSEL_L = 0x26a
                0x000000000000026b                __PDSEL_H = 0x26b
                0x000000000000026a                __PDSEL = 0x26a
                0x0000000000000280                __PEIN_L = 0x280
                0x0000000000000281                __PEIN_H = 0x281
                0x0000000000000280                __PEIN = 0x280
                0x0000000000000282                __PEOUT_L = 0x282
                0x0000000000000283                __PEOUT_H = 0x283
                0x0000000000000282                __PEOUT = 0x282
                0x0000000000000284                __PEDIR_L = 0x284
                0x0000000000000285                __PEDIR_H = 0x285
                0x0000000000000284                __PEDIR = 0x284
                0x0000000000000286                __PEREN_L = 0x286
                0x0000000000000287                __PEREN_H = 0x287
                0x0000000000000286                __PEREN = 0x286
                0x0000000000000288                __PEDS_L = 0x288
                0x0000000000000289                __PEDS_H = 0x289
                0x0000000000000288                __PEDS = 0x288
                0x000000000000028a                __PESEL_L = 0x28a
                0x000000000000028b                __PESEL_H = 0x28b
                0x000000000000028a                __PESEL = 0x28a
                0x00000000000002a0                __PFIN_L = 0x2a0
                0x00000000000002a1                __PFIN_H = 0x2a1
                0x00000000000002a0                __PFIN = 0x2a0
                0x00000000000002a2                __PFOUT_L = 0x2a2
                0x00000000000002a3                __PFOUT_H = 0x2a3
                0x00000000000002a2                __PFOUT = 0x2a2
                0x00000000000002a4                __PFDIR_L = 0x2a4
                0x00000000000002a5                __PFDIR_H = 0x2a5
                0x00000000000002a4                __PFDIR = 0x2a4
                0x00000000000002a6                __PFREN_L = 0x2a6
                0x00000000000002a7                __PFREN_H = 0x2a7
                0x00000000000002a6                __PFREN = 0x2a6
                0x00000000000002a8                __PFDS_L = 0x2a8
                0x00000000000002a9                __PFDS_H = 0x2a9
                0x00000000000002a8                __PFDS = 0x2a8
                0x00000000000002aa                __PFSEL_L = 0x2aa
                0x00000000000002ab                __PFSEL_H = 0x2ab
                0x00000000000002aa                __PFSEL = 0x2aa
                0x0000000000000320                __PJIN_L = 0x320
                0x0000000000000321                __PJIN_H = 0x321
                0x0000000000000320                __PJIN = 0x320
                0x0000000000000322                __PJOUT_L = 0x322
                0x0000000000000323                __PJOUT_H = 0x323
                0x0000000000000322                __PJOUT = 0x322
                0x0000000000000324                __PJDIR_L = 0x324
                0x0000000000000325                __PJDIR_H = 0x325
                0x0000000000000324                __PJDIR = 0x324
                0x0000000000000326                __PJREN_L = 0x326
                0x0000000000000327                __PJREN_H = 0x327
                0x0000000000000326                __PJREN = 0x326
                0x0000000000000328                __PJDS_L = 0x328
                0x0000000000000329                __PJDS_H = 0x329
                0x0000000000000328                __PJDS = 0x328
                0x0000000000000120                __PMMCTL0_L = 0x120
                0x0000000000000121                __PMMCTL0_H = 0x121
                0x0000000000000120                __PMMCTL0 = 0x120
                0x0000000000000122                __PMMCTL1_L = 0x122
                0x0000000000000123                __PMMCTL1_H = 0x123
                0x0000000000000122                __PMMCTL1 = 0x122
                0x0000000000000124                __SVSMHCTL_L = 0x124
                0x0000000000000125                __SVSMHCTL_H = 0x125
                0x0000000000000124                __SVSMHCTL = 0x124
                0x0000000000000126                __SVSMLCTL_L = 0x126
                0x0000000000000127                __SVSMLCTL_H = 0x127
                0x0000000000000126                __SVSMLCTL = 0x126
                0x0000000000000128                __SVSMIO_L = 0x128
                0x0000000000000129                __SVSMIO_H = 0x129
                0x0000000000000128                __SVSMIO = 0x128
                0x000000000000012c                __PMMIFG_L = 0x12c
                0x000000000000012d                __PMMIFG_H = 0x12d
                0x000000000000012c                __PMMIFG = 0x12c
                0x000000000000012e                __PMMRIE_L = 0x12e
                0x000000000000012f                __PMMRIE_H = 0x12f
                0x000000000000012e                __PMMRIE = 0x12e
                0x0000000000000158                __RCCTL0_L = 0x158
                0x0000000000000159                __RCCTL0_H = 0x159
                0x0000000000000158                __RCCTL0 = 0x158
                0x00000000000004a0                __RTCCTL01_L = 0x4a0
                0x00000000000004a1                __RTCCTL01_H = 0x4a1
                0x00000000000004a0                __RTCCTL01 = 0x4a0
                0x00000000000004a2                __RTCCTL23_L = 0x4a2
                0x00000000000004a3                __RTCCTL23_H = 0x4a3
                0x00000000000004a2                __RTCCTL23 = 0x4a2
                0x00000000000004a8                __RTCPS0CTL_L = 0x4a8
                0x00000000000004a9                __RTCPS0CTL_H = 0x4a9
                0x00000000000004a8                __RTCPS0CTL = 0x4a8
                0x00000000000004aa                __RTCPS1CTL_L = 0x4aa
                0x00000000000004ab                __RTCPS1CTL_H = 0x4ab
                0x00000000000004aa                __RTCPS1CTL = 0x4aa
                0x00000000000004ac                __RTCPS_L = 0x4ac
                0x00000000000004ad                __RTCPS_H = 0x4ad
                0x00000000000004ac                __RTCPS = 0x4ac
                0x00000000000004ae                __RTCIV = 0x4ae
                0x00000000000004b0                __RTCTIM0_L = 0x4b0
                0x00000000000004b1                __RTCTIM0_H = 0x4b1
                0x00000000000004b0                __RTCTIM0 = 0x4b0
                0x00000000000004b2                __RTCTIM1_L = 0x4b2
                0x00000000000004b3                __RTCTIM1_H = 0x4b3
                0x00000000000004b2                __RTCTIM1 = 0x4b2
                0x00000000000004b4                __RTCDATE_L = 0x4b4
                0x00000000000004b5                __RTCDATE_H = 0x4b5
                0x00000000000004b4                __RTCDATE = 0x4b4
                0x00000000000004b6                __RTCYEAR_L = 0x4b6
                0x00000000000004b7                __RTCYEAR_H = 0x4b7
                0x00000000000004b6                __RTCYEAR = 0x4b6
                0x00000000000004b8                __RTCAMINHR_L = 0x4b8
                0x00000000000004b9                __RTCAMINHR_H = 0x4b9
                0x00000000000004b8                __RTCAMINHR = 0x4b8
                0x00000000000004ba                __RTCADOWDAY_L = 0x4ba
                0x00000000000004bb                __RTCADOWDAY_H = 0x4bb
                0x00000000000004ba                __RTCADOWDAY = 0x4ba
                0x0000000000000100                __SFRIE1_L = 0x100
                0x0000000000000101                __SFRIE1_H = 0x101
                0x0000000000000100                __SFRIE1 = 0x100
                0x0000000000000102                __SFRIFG1_L = 0x102
                0x0000000000000103                __SFRIFG1_H = 0x103
                0x0000000000000102                __SFRIFG1 = 0x102
                0x0000000000000104                __SFRRPCR_L = 0x104
                0x0000000000000105                __SFRRPCR_H = 0x105
                0x0000000000000104                __SFRRPCR = 0x104
                0x0000000000000180                __SYSCTL_L = 0x180
                0x0000000000000181                __SYSCTL_H = 0x181
                0x0000000000000180                __SYSCTL = 0x180
                0x0000000000000182                __SYSBSLC_L = 0x182
                0x0000000000000183                __SYSBSLC_H = 0x183
                0x0000000000000182                __SYSBSLC = 0x182
                0x0000000000000186                __SYSJMBC_L = 0x186
                0x0000000000000187                __SYSJMBC_H = 0x187
                0x0000000000000186                __SYSJMBC = 0x186
                0x0000000000000188                __SYSJMBI0_L = 0x188
                0x0000000000000189                __SYSJMBI0_H = 0x189
                0x0000000000000188                __SYSJMBI0 = 0x188
                0x000000000000018a                __SYSJMBI1_L = 0x18a
                0x000000000000018b                __SYSJMBI1_H = 0x18b
                0x000000000000018a                __SYSJMBI1 = 0x18a
                0x000000000000018c                __SYSJMBO0_L = 0x18c
                0x000000000000018d                __SYSJMBO0_H = 0x18d
                0x000000000000018c                __SYSJMBO0 = 0x18c
                0x000000000000018e                __SYSJMBO1_L = 0x18e
                0x000000000000018f                __SYSJMBO1_H = 0x18f
                0x000000000000018e                __SYSJMBO1 = 0x18e
                0x000000000000019a                __SYSUNIV_L = 0x19a
                0x000000000000019b                __SYSUNIV_H = 0x19b
                0x000000000000019a                __SYSUNIV = 0x19a
                0x000000000000019c                __SYSSNIV_L = 0x19c
                0x000000000000019d                __SYSSNIV_H = 0x19d
                0x000000000000019c                __SYSSNIV = 0x19c
                0x000000000000019e                __SYSRSTIV_L = 0x19e
                0x000000000000019f                __SYSRSTIV_H = 0x19f
                0x000000000000019e                __SYSRSTIV = 0x19e
                0x0000000000000340                __TA0CTL = 0x340
                0x0000000000000342                __TA0CCTL0 = 0x342
                0x0000000000000344                __TA0CCTL1 = 0x344
                0x0000000000000346                __TA0CCTL2 = 0x346
                0x0000000000000348                __TA0CCTL3 = 0x348
                0x000000000000034a                __TA0CCTL4 = 0x34a
                0x0000000000000350                __TA0R = 0x350
                0x0000000000000352                __TA0CCR0 = 0x352
                0x0000000000000354                __TA0CCR1 = 0x354
                0x0000000000000356                __TA0CCR2 = 0x356
                0x0000000000000358                __TA0CCR3 = 0x358
                0x000000000000035a                __TA0CCR4 = 0x35a
                0x000000000000036e                __TA0IV = 0x36e
                0x0000000000000360                __TA0EX0 = 0x360
                0x0000000000000380                __TA1CTL = 0x380
                0x0000000000000382                __TA1CCTL0 = 0x382
                0x0000000000000384                __TA1CCTL1 = 0x384
                0x0000000000000386                __TA1CCTL2 = 0x386
                0x0000000000000390                __TA1R = 0x390
                0x0000000000000392                __TA1CCR0 = 0x392
                0x0000000000000394                __TA1CCR1 = 0x394
                0x0000000000000396                __TA1CCR2 = 0x396
                0x00000000000003ae                __TA1IV = 0x3ae
                0x00000000000003a0                __TA1EX0 = 0x3a0
                0x00000000000003c0                __TB0CTL = 0x3c0
                0x00000000000003c2                __TB0CCTL0 = 0x3c2
                0x00000000000003c4                __TB0CCTL1 = 0x3c4
                0x00000000000003c6                __TB0CCTL2 = 0x3c6
                0x00000000000003c8                __TB0CCTL3 = 0x3c8
                0x00000000000003ca                __TB0CCTL4 = 0x3ca
                0x00000000000003cc                __TB0CCTL5 = 0x3cc
                0x00000000000003ce                __TB0CCTL6 = 0x3ce
                0x00000000000003d0                __TB0R = 0x3d0
                0x00000000000003d2                __TB0CCR0 = 0x3d2
                0x00000000000003d4                __TB0CCR1 = 0x3d4
                0x00000000000003d6                __TB0CCR2 = 0x3d6
                0x00000000000003d8                __TB0CCR3 = 0x3d8
                0x00000000000003da                __TB0CCR4 = 0x3da
                0x00000000000003dc                __TB0CCR5 = 0x3dc
                0x00000000000003de                __TB0CCR6 = 0x3de
                0x00000000000003e0                __TB0EX0 = 0x3e0
                0x00000000000003ee                __TB0IV = 0x3ee
                0x0000000000000160                __UCSCTL0_L = 0x160
                0x0000000000000161                __UCSCTL0_H = 0x161
                0x0000000000000160                __UCSCTL0 = 0x160
                0x0000000000000162                __UCSCTL1_L = 0x162
                0x0000000000000163                __UCSCTL1_H = 0x163
                0x0000000000000162                __UCSCTL1 = 0x162
                0x0000000000000164                __UCSCTL2_L = 0x164
                0x0000000000000165                __UCSCTL2_H = 0x165
                0x0000000000000164                __UCSCTL2 = 0x164
                0x0000000000000166                __UCSCTL3_L = 0x166
                0x0000000000000167                __UCSCTL3_H = 0x167
                0x0000000000000166                __UCSCTL3 = 0x166
                0x0000000000000168                __UCSCTL4_L = 0x168
                0x0000000000000169                __UCSCTL4_H = 0x169
                0x0000000000000168                __UCSCTL4 = 0x168
                0x000000000000016a                __UCSCTL5_L = 0x16a
                0x000000000000016b                __UCSCTL5_H = 0x16b
                0x000000000000016a                __UCSCTL5 = 0x16a
                0x000000000000016c                __UCSCTL6_L = 0x16c
                0x000000000000016d                __UCSCTL6_H = 0x16d
                0x000000000000016c                __UCSCTL6 = 0x16c
                0x000000000000016e                __UCSCTL7_L = 0x16e
                0x000000000000016f                __UCSCTL7_H = 0x16f
                0x000000000000016e                __UCSCTL7 = 0x16e
                0x0000000000000170                __UCSCTL8_L = 0x170
                0x0000000000000171                __UCSCTL8_H = 0x171
                0x0000000000000170                __UCSCTL8 = 0x170
                0x00000000000005c0                __UCA0CTLW0_L = 0x5c0
                0x00000000000005c1                __UCA0CTLW0_H = 0x5c1
                0x00000000000005c0                __UCA0CTLW0 = 0x5c0
                0x00000000000005c6                __UCA0BRW_L = 0x5c6
                0x00000000000005c7                __UCA0BRW_H = 0x5c7
                0x00000000000005c6                __UCA0BRW = 0x5c6
                0x00000000000005c8                __UCA0MCTL = 0x5c8
                0x00000000000005ca                __UCA0STAT = 0x5ca
                0x00000000000005cc                __UCA0RXBUF = 0x5cc
                0x00000000000005ce                __UCA0TXBUF = 0x5ce
                0x00000000000005d0                __UCA0ABCTL = 0x5d0
                0x00000000000005d2                __UCA0IRCTL_L = 0x5d2
                0x00000000000005d3                __UCA0IRCTL_H = 0x5d3
                0x00000000000005d2                __UCA0IRCTL = 0x5d2
                0x00000000000005dc                __UCA0ICTL_L = 0x5dc
                0x00000000000005dd                __UCA0ICTL_H = 0x5dd
                0x00000000000005dc                __UCA0ICTL = 0x5dc
                0x00000000000005de                __UCA0IV = 0x5de
                0x00000000000005e0                __UCB0CTLW0_L = 0x5e0
                0x00000000000005e1                __UCB0CTLW0_H = 0x5e1
                0x00000000000005e0                __UCB0CTLW0 = 0x5e0
                0x00000000000005e6                __UCB0BRW_L = 0x5e6
                0x00000000000005e7                __UCB0BRW_H = 0x5e7
                0x00000000000005e6                __UCB0BRW = 0x5e6
                0x00000000000005ea                __UCB0STAT = 0x5ea
                0x00000000000005ec                __UCB0RXBUF = 0x5ec
                0x00000000000005ee                __UCB0TXBUF = 0x5ee
                0x00000000000005f0                __UCB0I2COA_L = 0x5f0
                0x00000000000005f1                __UCB0I2COA_H = 0x5f1
                0x00000000000005f0                __UCB0I2COA = 0x5f0
                0x00000000000005f2                __UCB0I2CSA_L = 0x5f2
                0x00000000000005f3                __UCB0I2CSA_H = 0x5f3
                0x00000000000005f2                __UCB0I2CSA = 0x5f2
                0x00000000000005fc                __UCB0ICTL_L = 0x5fc
                0x00000000000005fd                __UCB0ICTL_H = 0x5fd
                0x00000000000005fc                __UCB0ICTL = 0x5fc
                0x00000000000005fe                __UCB0IV = 0x5fe
                0x0000000000000600                __UCA1CTLW0_L = 0x600
                0x0000000000000601                __UCA1CTLW0_H = 0x601
                0x0000000000000600                __UCA1CTLW0 = 0x600
                0x0000000000000606                __UCA1BRW_L = 0x606
                0x0000000000000607                __UCA1BRW_H = 0x607
                0x0000000000000606                __UCA1BRW = 0x606
                0x0000000000000608                __UCA1MCTL = 0x608
                0x000000000000060a                __UCA1STAT = 0x60a
                0x000000000000060c                __UCA1RXBUF = 0x60c
                0x000000000000060e                __UCA1TXBUF = 0x60e
                0x0000000000000610                __UCA1ABCTL = 0x610
                0x0000000000000612                __UCA1IRCTL_L = 0x612
                0x0000000000000613                __UCA1IRCTL_H = 0x613
                0x0000000000000612                __UCA1IRCTL = 0x612
                0x000000000000061c                __UCA1ICTL_L = 0x61c
                0x000000000000061d                __UCA1ICTL_H = 0x61d
                0x000000000000061c                __UCA1ICTL = 0x61c
                0x000000000000061e                __UCA1IV = 0x61e
                0x0000000000000620                __UCB1CTLW0_L = 0x620
                0x0000000000000621                __UCB1CTLW0_H = 0x621
                0x0000000000000620                __UCB1CTLW0 = 0x620
                0x0000000000000626                __UCB1BRW_L = 0x626
                0x0000000000000627                __UCB1BRW_H = 0x627
                0x0000000000000626                __UCB1BRW = 0x626
                0x000000000000062a                __UCB1STAT = 0x62a
                0x000000000000062c                __UCB1RXBUF = 0x62c
                0x000000000000062e                __UCB1TXBUF = 0x62e
                0x0000000000000630                __UCB1I2COA_L = 0x630
                0x0000000000000631                __UCB1I2COA_H = 0x631
                0x0000000000000630                __UCB1I2COA = 0x630
                0x0000000000000632                __UCB1I2CSA_L = 0x632
                0x0000000000000633                __UCB1I2CSA_H = 0x633
                0x0000000000000632                __UCB1I2CSA = 0x632
                0x000000000000063c                __UCB1ICTL_L = 0x63c
                0x000000000000063d                __UCB1ICTL_H = 0x63d
                0x000000000000063c                __UCB1ICTL = 0x63c
                0x000000000000063e                __UCB1IV = 0x63e
                0x000000000000015c                __WDTCTL_L = 0x15c
                0x000000000000015d                __WDTCTL_H = 0x15d
                0x000000000000015c                __WDTCTL = 0x15c

.hash
 *(.hash)

.dynsym
 *(.dynsym)

.dynstr
 *(.dynstr)

.gnu.version
 *(.gnu.version)

.gnu.version_d
 *(.gnu.version_d)

.gnu.version_r
 *(.gnu.version_r)

.rel.init
 *(.rel.init)

.rela.init
 *(.rela.init)

.rel.fini
 *(.rel.fini)

.rela.fini
 *(.rela.fini)

.rel.text
 *(.rel.text .rel.text.* .rel.gnu.linkonce.t.*)

.rela.text
 *(.rela.text .rela.text.* .rela.gnu.linkonce.t.*)

.rel.rodata
 *(.rel.rodata .rel.rodata.* .rel.gnu.linkonce.r.*)

.rela.rodata
 *(.rela.rodata .rela.rodata.* .rela.gnu.linkonce.r.*)

.rel.data
 *(.rel.data .rel.data.* .rel.gnu.linkonce.d.*)

.rela.data
 *(.rela.data .rela.data.* .rela.gnu.linkonce.d.*)

.rel.bss
 *(.rel.bss .rel.bss.* .rel.gnu.linkonce.b.*)

.rela.bss
 *(.rela.bss .rela.bss.* .rela.gnu.linkonce.b.*)

.rel.ctors
 *(.rel.ctors)

.rela.ctors
 *(.rela.ctors)

.rel.dtors
 *(.rel.dtors)

.rela.dtors
 *(.rela.dtors)

.rel.got
 *(.rel.got)

.rela.got
 *(.rela.got)

.rel.plt
 *(.rel.plt)

.rela.plt
 *(.rela.plt)

.text           0x0000000000005c00     0x9a90
                0x0000000000005c00                . = ALIGN (0x2)
 *(.init .init.*)
 *(.init0)
 .init0         0x0000000000005c00        0x0 /opt/compilers/mspgcc-4.7.3/bin/../lib/gcc/msp430/4.7.3/mcpu-430x/mmpy-16/msr20/mc20/libcrt0.a(_reset_vector__.o)
                0x0000000000005c00                _reset_vector__
 *(.init1)
 .init1         0x0000000000005c00        0xc /opt/compilers/mspgcc-4.7.3/bin/../lib/gcc/msp430/4.7.3/mcpu-430x/mmpy-16/msr20/mc20/libcrt0.a(__watchdog_support.o)
                0x0000000000005c00                __watchdog_support
 *(.init2)
 .init2         0x0000000000005c0c        0x4 /opt/compilers/mspgcc-4.7.3/bin/../lib/gcc/msp430/4.7.3/mcpu-430x/mmpy-16/msr20/mc20/libcrt0.a(__init_stack.o)
                0x0000000000005c0c                __init_stack
 *(.init3)
 .init3         0x0000000000005c10        0x0 /opt/compilers/mspgcc-4.7.3/bin/../lib/gcc/msp430/4.7.3/mcpu-430x/mmpy-16/msr20/mc20/libcrt0.a(__low_level_init.o)
                0x0000000000005c10                __low_level_init
 *(.init4)
 .init4         0x0000000000005c10       0x18 /opt/compilers/mspgcc-4.7.3/bin/../lib/gcc/msp430/4.7.3/mcpu-430x/mmpy-16/msr20/mc20/libcrt0.a(_copy_data.o)
                0x0000000000005c10                __do_copy_data
 .init4         0x0000000000005c28       0x16 /opt/compilers/mspgcc-4.7.3/bin/../lib/gcc/msp430/4.7.3/mcpu-430x/mmpy-16/msr20/mc20/libcrt0.a(_clear_bss.o)
                0x0000000000005c28                __do_clear_bss
 *(.init5)
 *(.init6)
 *(.init7)
 *(.init8)
 *(.init9)
 .init9         0x0000000000005c3e      0x32a obj_wismote/contiki-wismote-main.o
                0x0000000000005c3e                main
 *(.fini9)
 .fini9         0x0000000000005f68        0x0 /opt/compilers/mspgcc-4.7.3/bin/../lib/gcc/msp430/4.7.3/mcpu-430x/mmpy-16/msr20/mc20/libcrt0.a(__stop_progExec__.o)
                0x0000000000005f68                __stop_progExec__
 *(.fini8)
 *(.fini7)
 *(.fini6)
 *(.fini5)
 *(.fini4)
 *(.fini3)
 *(.fini2)
 *(.fini1)
 *(.fini0)
 .fini0         0x0000000000005f68        0x6 /opt/compilers/mspgcc-4.7.3/bin/../lib/gcc/msp430/4.7.3/mcpu-430x/mmpy-16/msr20/mc20/libcrt0.a(_endless_loop__.o)
                0x0000000000005f68                _endless_loop__
 *(.fini .fini.*)
                0x0000000000005f6e                . = ALIGN (0x2)
                0x0000000000005f6e                __ctors_start = .
 *(.ctors)
                0x0000000000005f6e                __ctors_end = .
                0x0000000000005f6e                __dtors_start = .
 *(.dtors)
                0x0000000000005f6e                __dtors_end = .
                0x0000000000005f6e                . = ALIGN (0x2)
 *(.text .text.* .gnu.linkonce.t.*)
 .text          0x0000000000005f6e        0x4 /opt/compilers/mspgcc-4.7.3/bin/../lib/gcc/msp430/4.7.3/mcpu-430x/mmpy-16/msr20/mc20/crt0ivtbl64.o
                0x0000000000005f6e                __isr_37
                0x0000000000005f6e                __isr_51
                0x0000000000005f6e                __isr_57
                0x0000000000005f6e                __isr_33
                0x0000000000005f6e                __isr_32
                0x0000000000005f6e                __isr_54
                0x0000000000005f6e                __isr_59
                0x0000000000005f6e                __isr_39
                0x0000000000005f6e                __isr_53
                0x0000000000005f6e                __isr_41
                0x0000000000005f6e                __isr_60
                0x0000000000005f6e                __isr_36
                0x0000000000005f6e                __isr_34
                0x0000000000005f6e                __isr_44
                0x0000000000005f6e                __isr_61
                0x0000000000005f6e                __isr_55
                0x0000000000005f6e                __isr_43
                0x0000000000005f6e                __isr_50
                0x0000000000005f6e                __isr_56
                0x0000000000005f6e                __isr_38
                0x0000000000005f6e                __isr_35
                0x0000000000005f6e                __isr_45
                0x0000000000005f6e                __isr_62
                0x0000000000005f6e                __isr_52
                0x0000000000005f6e                __isr_40
 .text.libgcc   0x0000000000005f72       0x22 /opt/compilers/mspgcc-4.7.3/bin/../lib/gcc/msp430/4.7.3/mcpu-430x/mmpy-16/msr20/mc20/libgcc.a(_udivmod16.o)
                0x0000000000005f72                __udivhi3
                0x0000000000005f72                __ext_udivmod16
                0x0000000000005f8c                __umodhi3
 .text.libgcc   0x0000000000005f94       0x3a /opt/compilers/mspgcc-4.7.3/bin/../lib/gcc/msp430/4.7.3/mcpu-430x/mmpy-16/msr20/mc20/libgcc.a(_divmod16.o)
                0x0000000000005f94                __ext_divmod16
                0x0000000000005f94                __divhi3
                0x0000000000005fc6                __modhi3
 .text.libgcc   0x0000000000005fce       0x38 /opt/compilers/mspgcc-4.7.3/bin/../lib/gcc/msp430/4.7.3/mcpu-430x/mmpy-16/msr20/mc20/libgcc.a(_udivmod32.o)
                0x0000000000005fce                __udivsi3
                0x0000000000005fce                __ext_udivmod32
                0x0000000000005ffc                __umodsi3
 .text.libgcc   0x0000000000006006       0x4c /opt/compilers/mspgcc-4.7.3/bin/../lib/gcc/msp430/4.7.3/mcpu-430x/mmpy-16/msr20/mc20/libgcc.a(_divmod32.o)
                0x0000000000006006                __ext_divmod32
                0x0000000000006006                __divsi3
                0x0000000000006048                __modsi3
 .text.libgcc   0x0000000000006052       0x26 /opt/compilers/mspgcc-4.7.3/bin/../lib/gcc/msp430/4.7.3/mcpu-430x/mmpy-16/msr20/mc20/libgcc.a(_mulsi3.o)
                0x0000000000006052                __mulsi3
 .text.libgcc   0x0000000000006078       0xbc /opt/compilers/mspgcc-4.7.3/bin/../lib/gcc/msp430/4.7.3/mcpu-430x/mmpy-16/msr20/mc20/libgcc.a(_udivmod64.o)
                0x0000000000006078                __xabi_udivmod64
                0x00000000000060ca                __udivdi3
                0x00000000000060e4                __umoddi3
                0x0000000000006106                __udivmoddi4
 .text.crt0     0x0000000000006134        0x2 /opt/compilers/mspgcc-4.7.3/bin/../lib/gcc/msp430/4.7.3/mcpu-430x/mmpy-16/msr20/mc20/libcrt0.a(_unexpected_.o)
                0x0000000000006134                _unexpected_
 *(.near.text .near.text.*)
 .near.text.irq_p2
                0x0000000000006136       0x74 contiki-wismote.a(button-sensor.o)
                0x0000000000006136                irq_p2
                0x0000000000006136                __isr_42
 .near.text.cc2520_port1_interrupt
                0x00000000000061aa       0x4e contiki-wismote.a(cc2520-arch.o)
                0x00000000000061aa                __isr_47
                0x00000000000061aa                cc2520_port1_interrupt
 .near.text.uart1_rx_interrupt
                0x00000000000061f8       0x6c contiki-wismote.a(uart1.o)
                0x00000000000061f8                __isr_46
                0x00000000000061f8                uart1_rx_interrupt
 .near.text.timera1
                0x0000000000006264       0xfa contiki-wismote.a(clock.o)
                0x0000000000006264                __isr_48
                0x0000000000006264                timera1
 .near.text.watchdog_interrupt
                0x000000000000635e        0x6 contiki-wismote.a(watchdog.o)
                0x000000000000635e                watchdog_interrupt
                0x000000000000635e                __isr_58
 .near.text.timera0
                0x0000000000006364       0x5c contiki-wismote.a(rtimer-arch.o)
                0x0000000000006364                __isr_49
                0x0000000000006364                timera0
 .any.text.print_local_addresses
                0x00000000000063c0       0xbc park.co
 .any.text.process_thread_park_client
                0x000000000000647c      0x39a park.co
 .any.text.process_thread_park_server
                0x0000000000006816      0x152 park.co
 .any.text.client_chunk_handler
                0x0000000000006968        0xc park.co
                0x0000000000006968                client_chunk_handler
 .any.text.res_post_handler
                0x0000000000006974       0x44 obj_wismote/parkevent.o
 .any.text.DataLayer_initStorage
                0x00000000000069b8        0xa obj_wismote/dataLayer.o
                0x00000000000069b8                DataLayer_initStorage
 .any.text.DataLayer_addOwnRecord
                0x00000000000069c2       0x16 obj_wismote/dataLayer.o
                0x00000000000069c2                DataLayer_addOwnRecord
 .any.text.DataLayer_addOrReplaceRecords
                0x00000000000069d8      0x10e obj_wismote/dataLayer.o
                0x00000000000069d8                DataLayer_addOrReplaceRecords
 .any.text.DataLayer_isDataNeedToBeSend
                0x0000000000006ae6       0x18 obj_wismote/dataLayer.o
                0x0000000000006ae6                DataLayer_isDataNeedToBeSend
 .any.text.DataLayer_getDataToSend
                0x0000000000006afe      0x110 obj_wismote/dataLayer.o
                0x0000000000006afe                DataLayer_getDataToSend
 .any.text.initDataStructure
                0x0000000000006c0e       0x3c obj_wismote/data.o
                0x0000000000006c0e                initDataStructure
 .any.text.getCount
                0x0000000000006c4a        0x6 obj_wismote/data.o
                0x0000000000006c4a                getCount
 .any.text.getNFirstElement
                0x0000000000006c50       0x44 obj_wismote/data.o
                0x0000000000006c50                getNFirstElement
 .any.text.getTimestamp
                0x0000000000006c94       0x42 obj_wismote/data.o
                0x0000000000006c94                getTimestamp
 .any.text.setTimestamp
                0x0000000000006cd6       0x48 obj_wismote/data.o
                0x0000000000006cd6                setTimestamp
 .any.text.addToHead
                0x0000000000006d1e       0x40 obj_wismote/data.o
                0x0000000000006d1e                addToHead
 .any.text.addToTail
                0x0000000000006d5e       0x90 obj_wismote/data.o
                0x0000000000006d5e                addToTail
 .any.text.convert
                0x0000000000006dee       0x2a obj_wismote/helpers.o
                0x0000000000006dee                convert
 .any.text.split
                0x0000000000006e18       0xa8 obj_wismote/helpers.o
                0x0000000000006e18                split
 .any.text.splitToArrays
                0x0000000000006ec0       0x9e obj_wismote/helpers.o
                0x0000000000006ec0                splitToArrays
 .any.text.strCmp
                0x0000000000006f5e       0x32 obj_wismote/helpers.o
                0x0000000000006f5e                strCmp
 .any.text.getIntDigit
                0x0000000000006f90       0x34 obj_wismote/helpers.o
                0x0000000000006f90                getIntDigit
 .any.text.getString
                0x0000000000006fc4       0xf4 obj_wismote/helpers.o
                0x0000000000006fc4                getString
 .any.text.coap_parse_int_option
                0x00000000000070b8       0x36 contiki-wismote.a(er-coap.o)
 .any.text.coap_get_variable
                0x00000000000070ee       0x78 contiki-wismote.a(er-coap.o)
 .any.text.coap_merge_multi_option
                0x0000000000007166       0x3a contiki-wismote.a(er-coap.o)
 .any.text.coap_set_option_header
                0x00000000000071a0       0x98 contiki-wismote.a(er-coap.o)
 .any.text.coap_serialize_int_option
                0x0000000000007238       0xb8 contiki-wismote.a(er-coap.o)
 .any.text.coap_serialize_array_option.part.0
                0x00000000000072f0       0x28 contiki-wismote.a(er-coap.o)
 .any.text.coap_serialize_array_option
                0x0000000000007318       0x82 contiki-wismote.a(er-coap.o)
 .any.text.coap_init_connection
                0x000000000000739a       0x22 contiki-wismote.a(er-coap.o)
                0x000000000000739a                coap_init_connection
 .any.text.coap_get_mid
                0x00000000000073bc        0xc contiki-wismote.a(er-coap.o)
                0x00000000000073bc                coap_get_mid
 .any.text.coap_init_message
                0x00000000000073c8       0x24 contiki-wismote.a(er-coap.o)
                0x00000000000073c8                coap_init_message
 .any.text.coap_serialize_message
                0x00000000000073ec      0x3ba contiki-wismote.a(er-coap.o)
                0x00000000000073ec                coap_serialize_message
 .any.text.coap_send_message
                0x00000000000077a6       0x3e contiki-wismote.a(er-coap.o)
                0x00000000000077a6                coap_send_message
 .any.text.coap_parse_message
                0x00000000000077e4      0x468 contiki-wismote.a(er-coap.o)
                0x00000000000077e4                coap_parse_message
 .any.text.coap_get_query_variable
                0x0000000000007c4c       0x1c contiki-wismote.a(er-coap.o)
                0x0000000000007c4c                coap_get_query_variable
 .any.text.coap_get_post_variable
                0x0000000000007c68       0x20 contiki-wismote.a(er-coap.o)
                0x0000000000007c68                coap_get_post_variable
 .any.text.coap_set_status_code
                0x0000000000007c88       0x12 contiki-wismote.a(er-coap.o)
                0x0000000000007c88                coap_set_status_code
 .any.text.coap_set_token
                0x0000000000007c9a       0x24 contiki-wismote.a(er-coap.o)
                0x0000000000007c9a                coap_set_token
 .any.text.coap_get_header_content_format
                0x0000000000007cbe       0x16 contiki-wismote.a(er-coap.o)
                0x0000000000007cbe                coap_get_header_content_format
 .any.text.coap_set_header_content_format
                0x0000000000007cd4        0xe contiki-wismote.a(er-coap.o)
                0x0000000000007cd4                coap_set_header_content_format
 .any.text.coap_get_header_accept
                0x0000000000007ce2       0x14 contiki-wismote.a(er-coap.o)
                0x0000000000007ce2                coap_get_header_accept
 .any.text.coap_get_header_max_age
                0x0000000000007cf6       0x24 contiki-wismote.a(er-coap.o)
                0x0000000000007cf6                coap_get_header_max_age
 .any.text.coap_set_header_max_age
                0x0000000000007d1a       0x12 contiki-wismote.a(er-coap.o)
                0x0000000000007d1a                coap_set_header_max_age
 .any.text.coap_set_header_etag
                0x0000000000007d2c       0x2a contiki-wismote.a(er-coap.o)
                0x0000000000007d2c                coap_set_header_etag
 .any.text.coap_get_header_if_match
                0x0000000000007d56       0x1a contiki-wismote.a(er-coap.o)
                0x0000000000007d56                coap_get_header_if_match
 .any.text.coap_get_header_if_none_match
                0x0000000000007d70        0xc contiki-wismote.a(er-coap.o)
                0x0000000000007d70                coap_get_header_if_none_match
 .any.text.coap_get_header_uri_host
                0x0000000000007d7c       0x16 contiki-wismote.a(er-coap.o)
                0x0000000000007d7c                coap_get_header_uri_host
 .any.text.coap_get_header_uri_path
                0x0000000000007d92       0x16 contiki-wismote.a(er-coap.o)
                0x0000000000007d92                coap_get_header_uri_path
 .any.text.coap_set_header_uri_path
                0x0000000000007da8       0x2a contiki-wismote.a(er-coap.o)
                0x0000000000007da8                coap_set_header_uri_path
 .any.text.coap_get_header_uri_query
                0x0000000000007dd2       0x16 contiki-wismote.a(er-coap.o)
                0x0000000000007dd2                coap_get_header_uri_query
 .any.text.coap_set_header_location_query
                0x0000000000007de8       0x2c contiki-wismote.a(er-coap.o)
                0x0000000000007de8                coap_set_header_location_query
 .any.text.coap_set_header_location_path
                0x0000000000007e14       0x5a contiki-wismote.a(er-coap.o)
                0x0000000000007e14                coap_set_header_location_path
 .any.text.coap_get_header_observe
                0x0000000000007e6e       0x1c contiki-wismote.a(er-coap.o)
                0x0000000000007e6e                coap_get_header_observe
 .any.text.coap_set_header_observe
                0x0000000000007e8a       0x12 contiki-wismote.a(er-coap.o)
                0x0000000000007e8a                coap_set_header_observe
 .any.text.coap_get_header_block2
                0x0000000000007e9c       0x4c contiki-wismote.a(er-coap.o)
                0x0000000000007e9c                coap_get_header_block2
 .any.text.coap_set_header_block2
                0x0000000000007ee8       0x42 contiki-wismote.a(er-coap.o)
                0x0000000000007ee8                coap_set_header_block2
 .any.text.coap_get_header_size2
                0x0000000000007f2a       0x1c contiki-wismote.a(er-coap.o)
                0x0000000000007f2a                coap_get_header_size2
 .any.text.coap_set_header_size2
                0x0000000000007f46       0x12 contiki-wismote.a(er-coap.o)
                0x0000000000007f46                coap_set_header_size2
 .any.text.coap_get_payload
                0x0000000000007f58       0x1a contiki-wismote.a(er-coap.o)
                0x0000000000007f58                coap_get_payload
 .any.text.coap_set_payload
                0x0000000000007f72       0x16 contiki-wismote.a(er-coap.o)
                0x0000000000007f72                coap_set_payload
 .any.text.coap_set_service_callback
                0x0000000000007f88        0x6 contiki-wismote.a(er-coap-engine.)
                0x0000000000007f88                coap_set_service_callback
 .any.text.coap_get_rest_method
                0x0000000000007f8e       0x16 contiki-wismote.a(er-coap-engine.)
                0x0000000000007f8e                coap_get_rest_method
 .any.text.process_thread_coap_engine
                0x0000000000007fa4      0x43e contiki-wismote.a(er-coap-engine.)
 .any.text.coap_blocking_request_callback
                0x00000000000083e2        0xe contiki-wismote.a(er-coap-engine.)
                0x00000000000083e2                coap_blocking_request_callback
 .any.text.coap_init_engine
                0x00000000000083f0        0xc contiki-wismote.a(er-coap-engine.)
                0x00000000000083f0                coap_init_engine
 .any.text.coap_blocking_request
                0x00000000000083fc      0x118 contiki-wismote.a(er-coap-engine.)
                0x00000000000083fc                coap_blocking_request
 .any.text.coap_register_as_transaction_handler
                0x0000000000008514        0x8 contiki-wismote.a(er-coap-transac)
                0x0000000000008514                coap_register_as_transaction_handler
 .any.text.coap_new_transaction
                0x000000000000851c       0x46 contiki-wismote.a(er-coap-transac)
                0x000000000000851c                coap_new_transaction
 .any.text.coap_clear_transaction
                0x0000000000008562       0x26 contiki-wismote.a(er-coap-transac)
                0x0000000000008562                coap_clear_transaction
 .any.text.coap_send_transaction
                0x0000000000008588       0xac contiki-wismote.a(er-coap-transac)
                0x0000000000008588                coap_send_transaction
 .any.text.coap_get_transaction_by_mid
                0x0000000000008634       0x1e contiki-wismote.a(er-coap-transac)
                0x0000000000008634                coap_get_transaction_by_mid
 .any.text.coap_check_transactions
                0x0000000000008652       0x2e contiki-wismote.a(er-coap-transac)
                0x0000000000008652                coap_check_transactions
 .any.text.coap_remove_observer
                0x0000000000008680       0x1c contiki-wismote.a(er-coap-observe)
                0x0000000000008680                coap_remove_observer
 .any.text.coap_remove_observer_by_client
                0x000000000000869c       0x40 contiki-wismote.a(er-coap-observe)
                0x000000000000869c                coap_remove_observer_by_client
 .any.text.coap_remove_observer_by_token
                0x00000000000086dc       0x5e contiki-wismote.a(er-coap-observe)
                0x00000000000086dc                coap_remove_observer_by_token
 .any.text.coap_remove_observer_by_uri
                0x000000000000873a       0x6a contiki-wismote.a(er-coap-observe)
                0x000000000000873a                coap_remove_observer_by_uri
 .any.text.coap_add_observer
                0x00000000000087a4       0x5c contiki-wismote.a(er-coap-observe)
                0x00000000000087a4                coap_add_observer
 .any.text.coap_remove_observer_by_mid
                0x0000000000008800       0x48 contiki-wismote.a(er-coap-observe)
                0x0000000000008800                coap_remove_observer_by_mid
 .any.text.coap_notify_observers
                0x0000000000008848       0xdc contiki-wismote.a(er-coap-observe)
                0x0000000000008848                coap_notify_observers
 .any.text.coap_observe_handler
                0x0000000000008924       0xb6 contiki-wismote.a(er-coap-observe)
                0x0000000000008924                coap_observe_handler
 .any.text.well_known_core_get_handler
                0x00000000000089da      0x234 contiki-wismote.a(er-coap-res-wel)
                0x00000000000089da                well_known_core_get_handler
 .any.text.simple_reply
                0x0000000000008c0e       0x34 contiki-wismote.a(er-coap-observe)
 .any.text.classify_notification
                0x0000000000008c42       0x5a contiki-wismote.a(er-coap-observe)
 .any.text.coap_get_obs_subject_by_token
                0x0000000000008c9c       0x4e contiki-wismote.a(er-coap-observe)
                0x0000000000008c9c                coap_get_obs_subject_by_token
 .any.text.coap_handle_notification
                0x0000000000008cea       0xbe contiki-wismote.a(er-coap-observe)
                0x0000000000008cea                coap_handle_notification
 .any.text.process_thread_rest_engine_process
                0x0000000000008da8       0xc0 contiki-wismote.a(rest-engine.o)
 .any.text.rest_invoke_restful_service
                0x0000000000008e68      0x11c contiki-wismote.a(rest-engine.o)
                0x0000000000008e68                rest_invoke_restful_service
 .any.text.rest_init_engine
                0x0000000000008f84       0x26 contiki-wismote.a(rest-engine.o)
                0x0000000000008f84                rest_init_engine
 .any.text.rest_activate_resource
                0x0000000000008faa       0x3e contiki-wismote.a(rest-engine.o)
                0x0000000000008faa                rest_activate_resource
 .any.text.rest_get_resources
                0x0000000000008fe8        0x6 contiki-wismote.a(rest-engine.o)
                0x0000000000008fe8                rest_get_resources
 .any.text.init_platform
                0x0000000000008fee        0xc contiki-wismote.a(contiki-wismote)
                0x0000000000008fee                init_platform
 .any.text.status
                0x0000000000008ffa       0x18 contiki-wismote.a(button-sensor.o)
 .any.text.value
                0x0000000000009012       0x20 contiki-wismote.a(button-sensor.o)
 .any.text.configure
                0x0000000000009032       0x4c contiki-wismote.a(button-sensor.o)
 .any.text.process_thread_sensors_process
                0x000000000000907e       0xc2 contiki-wismote.a(sensors.o)
 .any.text.sensors_changed
                0x0000000000009140       0x2a contiki-wismote.a(sensors.o)
                0x0000000000009140                sensors_changed
 .any.text.get_value
                0x000000000000916a       0x4a contiki-wismote.a(cc2520.o)
 .any.text.get_object
                0x00000000000091b4        0x4 contiki-wismote.a(cc2520.o)
 .any.text.set_object
                0x00000000000091b8        0x4 contiki-wismote.a(cc2520.o)
 .any.text.cc2520_receiving_packet
                0x00000000000091bc        0x8 contiki-wismote.a(cc2520.o)
 .any.text.pending_packet
                0x00000000000091c4        0xe contiki-wismote.a(cc2520.o)
 .any.text.status
                0x00000000000091d2       0x52 contiki-wismote.a(cc2520.o)
 .any.text.strobe
                0x0000000000009224       0x4e contiki-wismote.a(cc2520.o)
 .any.text.on   0x0000000000009272       0x46 contiki-wismote.a(cc2520.o)
 .any.text.flushrx
                0x00000000000092b8       0xf2 contiki-wismote.a(cc2520.o)
 .any.text.off  0x00000000000093aa       0x72 contiki-wismote.a(cc2520.o)
 .any.text.RELEASE_LOCK
                0x000000000000941c       0x28 contiki-wismote.a(cc2520.o)
 .any.text.getrxdata
                0x0000000000009444       0x7e contiki-wismote.a(cc2520.o)
 .any.text.setreg
                0x00000000000094c2       0x6e contiki-wismote.a(cc2520.o)
 .any.text.cc2520_prepare
                0x0000000000009530       0xde contiki-wismote.a(cc2520.o)
 .any.text.getreg
                0x000000000000960e       0x78 contiki-wismote.a(cc2520.o)
 .any.text.cc2520_on
                0x0000000000009686       0x22 contiki-wismote.a(cc2520.o)
                0x0000000000009686                cc2520_on
 .any.text.cc2520_off
                0x00000000000096a8       0x30 contiki-wismote.a(cc2520.o)
                0x00000000000096a8                cc2520_off
 .any.text.cc2520_cca
                0x00000000000096d8       0x76 contiki-wismote.a(cc2520.o)
 .any.text.cc2520_read
                0x000000000000974e       0xfe contiki-wismote.a(cc2520.o)
 .any.text.process_thread_cc2520_process
                0x000000000000984c       0x54 contiki-wismote.a(cc2520.o)
 .any.text.cc2520_set_channel
                0x00000000000098a0       0x78 contiki-wismote.a(cc2520.o)
                0x00000000000098a0                cc2520_set_channel
 .any.text.set_value
                0x0000000000009918       0x3c contiki-wismote.a(cc2520.o)
 .any.text.cc2520_set_pan_addr
                0x0000000000009954      0x1aa contiki-wismote.a(cc2520.o)
                0x0000000000009954                cc2520_set_pan_addr
 .any.text.cc2520_init
                0x0000000000009afe      0x17a contiki-wismote.a(cc2520.o)
                0x0000000000009afe                cc2520_init
 .any.text.cc2520_interrupt
                0x0000000000009c78       0x1c contiki-wismote.a(cc2520.o)
                0x0000000000009c78                cc2520_interrupt
 .any.text.cc2520_get_txpower
                0x0000000000009c94       0x1a contiki-wismote.a(cc2520.o)
                0x0000000000009c94                cc2520_get_txpower
 .any.text.cc2520_transmit
                0x0000000000009cae      0x14c contiki-wismote.a(cc2520.o)
 .any.text.cc2520_send
                0x0000000000009dfa       0x12 contiki-wismote.a(cc2520.o)
 .any.text.cc2520_arch_init
                0x0000000000009e0c       0x48 contiki-wismote.a(cc2520-arch.o)
                0x0000000000009e0c                cc2520_arch_init
 .any.text.uart1_active
                0x0000000000009e54        0xe contiki-wismote.a(uart1.o)
                0x0000000000009e54                uart1_active
 .any.text.uart1_writeb
                0x0000000000009e62       0x16 contiki-wismote.a(uart1.o)
                0x0000000000009e62                uart1_writeb
 .any.text.uart1_init
                0x0000000000009e78       0x64 contiki-wismote.a(uart1.o)
                0x0000000000009e78                uart1_init
 .any.text.putchar
                0x0000000000009edc       0x10 contiki-wismote.a(uart1-putchar.o)
                0x0000000000009edc                putchar
 .any.text.msp430_init_dco
                0x0000000000009eec       0x20 contiki-wismote.a(msp430.o)
                0x0000000000009eec                msp430_init_dco
 .any.text.msp430_cpu_init
                0x0000000000009f0c       0x82 contiki-wismote.a(msp430.o)
                0x0000000000009f0c                msp430_cpu_init
 .any.text.splhigh_
                0x0000000000009f8e        0x8 contiki-wismote.a(msp430.o)
                0x0000000000009f8e                splhigh_
 .any.text.clock_time
                0x0000000000009f96       0x1a contiki-wismote.a(clock.o)
                0x0000000000009f96                clock_time
 .any.text.clock_init
                0x0000000000009fb0       0x28 contiki-wismote.a(clock.o)
                0x0000000000009fb0                clock_init
 .any.text.clock_delay
                0x0000000000009fd8        0xc contiki-wismote.a(clock.o)
                0x0000000000009fd8                clock_delay
 .any.text.clock_wait
                0x0000000000009fe4       0x24 contiki-wismote.a(clock.o)
                0x0000000000009fe4                clock_wait
 .any.text.clock_seconds
                0x000000000000a008       0x1a contiki-wismote.a(clock.o)
                0x000000000000a008                clock_seconds
 .any.text.show_leds
                0x000000000000a022       0xe8 contiki-wismote.a(leds.o)
 .any.text.leds_init
                0x000000000000a10a        0xa contiki-wismote.a(leds.o)
                0x000000000000a10a                leds_init
 .any.text.leds_on
                0x000000000000a114        0xa contiki-wismote.a(leds.o)
                0x000000000000a114                leds_on
 .any.text.leds_off
                0x000000000000a11e        0xe contiki-wismote.a(leds.o)
                0x000000000000a11e                leds_off
 .any.text.leds_arch_init
                0x000000000000a12c       0x22 contiki-wismote.a(leds-arch.o)
                0x000000000000a12c                leds_arch_init
 .any.text.leds_arch_set
                0x000000000000a14e       0x4c contiki-wismote.a(leds-arch.o)
                0x000000000000a14e                leds_arch_set
 .any.text.watchdog_start
                0x000000000000a19a       0x14 contiki-wismote.a(watchdog.o)
                0x000000000000a19a                watchdog_start
 .any.text.watchdog_periodic
                0x000000000000a1ae       0x12 contiki-wismote.a(watchdog.o)
                0x000000000000a1ae                watchdog_periodic
 .any.text.watchdog_stop
                0x000000000000a1c0       0x16 contiki-wismote.a(watchdog.o)
                0x000000000000a1c0                watchdog_stop
 .any.text.watchdog_init
                0x000000000000a1d6       0x12 contiki-wismote.a(watchdog.o)
                0x000000000000a1d6                watchdog_init
 .any.text.rtimer_arch_init
                0x000000000000a1e8        0xe contiki-wismote.a(rtimer-arch.o)
                0x000000000000a1e8                rtimer_arch_init
 .any.text.rtimer_arch_now
                0x000000000000a1f6        0xe contiki-wismote.a(rtimer-arch.o)
                0x000000000000a1f6                rtimer_arch_now
 .any.text.rtimer_arch_schedule
                0x000000000000a204        0x6 contiki-wismote.a(rtimer-arch.o)
                0x000000000000a204                rtimer_arch_schedule
 .any.text.autostart_start
                0x000000000000a20a       0x16 contiki-wismote.a(autostart.o)
                0x000000000000a20a                autostart_start
 .any.text.energest_init
                0x000000000000a220       0x24 contiki-wismote.a(energest.o)
                0x000000000000a220                energest_init
 .any.text.energest_type_time
                0x000000000000a244       0x3c contiki-wismote.a(energest.o)
                0x000000000000a244                energest_type_time
 .any.text.energest_type_set
                0x000000000000a280        0xc contiki-wismote.a(energest.o)
                0x000000000000a280                energest_type_set
 .any.text.energest_flush
                0x000000000000a28c       0x38 contiki-wismote.a(energest.o)
                0x000000000000a28c                energest_flush
 .any.text.update_time
                0x000000000000a2c4       0x70 contiki-wismote.a(etimer.o)
 .any.text.etimer_request_poll
                0x000000000000a334        0xa contiki-wismote.a(etimer.o)
                0x000000000000a334                etimer_request_poll
 .any.text.process_thread_etimer_process
                0x000000000000a33e       0xc4 contiki-wismote.a(etimer.o)
 .any.text.add_timer
                0x000000000000a402       0x40 contiki-wismote.a(etimer.o)
 .any.text.etimer_set
                0x000000000000a442       0x12 contiki-wismote.a(etimer.o)
                0x000000000000a442                etimer_set
 .any.text.etimer_reset
                0x000000000000a454       0x12 contiki-wismote.a(etimer.o)
                0x000000000000a454                etimer_reset
 .any.text.etimer_restart
                0x000000000000a466       0x12 contiki-wismote.a(etimer.o)
                0x000000000000a466                etimer_restart
 .any.text.etimer_expired
                0x000000000000a478        0xe contiki-wismote.a(etimer.o)
                0x000000000000a478                etimer_expired
 .any.text.etimer_expiration_time
                0x000000000000a486       0x14 contiki-wismote.a(etimer.o)
                0x000000000000a486                etimer_expiration_time
 .any.text.etimer_pending
                0x000000000000a49a        0xc contiki-wismote.a(etimer.o)
                0x000000000000a49a                etimer_pending
 .any.text.etimer_next_expiration_time
                0x000000000000a4a6       0x16 contiki-wismote.a(etimer.o)
                0x000000000000a4a6                etimer_next_expiration_time
 .any.text.etimer_stop
                0x000000000000a4bc       0x3e contiki-wismote.a(etimer.o)
                0x000000000000a4bc                etimer_stop
 .any.text.process_thread_ctimer_process
                0x000000000000a4fa       0xa0 contiki-wismote.a(ctimer.o)
 .any.text.ctimer_init
                0x000000000000a59a       0x18 contiki-wismote.a(ctimer.o)
                0x000000000000a59a                ctimer_init
 .any.text.ctimer_set
                0x000000000000a5b2       0x48 contiki-wismote.a(ctimer.o)
                0x000000000000a5b2                ctimer_set
 .any.text.ctimer_reset
                0x000000000000a5fa       0x2c contiki-wismote.a(ctimer.o)
                0x000000000000a5fa                ctimer_reset
 .any.text.ctimer_stop
                0x000000000000a626       0x28 contiki-wismote.a(ctimer.o)
                0x000000000000a626                ctimer_stop
 .any.text.call_process
                0x000000000000a64e       0x40 contiki-wismote.a(process.o)
 .any.text.exit_process
                0x000000000000a68e       0x88 contiki-wismote.a(process.o)
 .any.text.do_poll
                0x000000000000a716       0x30 contiki-wismote.a(process.o)
 .any.text.process_alloc_event
                0x000000000000a746        0xe contiki-wismote.a(process.o)
                0x000000000000a746                process_alloc_event
 .any.text.process_init
                0x000000000000a754       0x1c contiki-wismote.a(process.o)
                0x000000000000a754                process_init
 .any.text.process_run
                0x000000000000a770       0xa4 contiki-wismote.a(process.o)
                0x000000000000a770                process_run
 .any.text.process_nevents
                0x000000000000a814        0xe contiki-wismote.a(process.o)
                0x000000000000a814                process_nevents
 .any.text.process_post
                0x000000000000a822       0x50 contiki-wismote.a(process.o)
                0x000000000000a822                process_post
 .any.text.process_post_synch
                0x000000000000a872       0x12 contiki-wismote.a(process.o)
                0x000000000000a872                process_post_synch
 .any.text.process_start
                0x000000000000a884       0x36 contiki-wismote.a(process.o)
                0x000000000000a884                process_start
 .any.text.process_poll
                0x000000000000a8ba       0x18 contiki-wismote.a(process.o)
                0x000000000000a8ba                process_poll
 .any.text.rtimer_init
                0x000000000000a8d2        0x6 contiki-wismote.a(rtimer.o)
                0x000000000000a8d2                rtimer_init
 .any.text.rtimer_run_next
                0x000000000000a8d8       0x26 contiki-wismote.a(rtimer.o)
                0x000000000000a8d8                rtimer_run_next
 .any.text.timer_set
                0x000000000000a8fe       0x1c contiki-wismote.a(timer.o)
                0x000000000000a8fe                timer_set
 .any.text.timer_reset
                0x000000000000a91a        0xe contiki-wismote.a(timer.o)
                0x000000000000a91a                timer_reset
 .any.text.timer_restart
                0x000000000000a928       0x14 contiki-wismote.a(timer.o)
                0x000000000000a928                timer_restart
 .any.text.timer_expired
                0x000000000000a93c       0x2a contiki-wismote.a(timer.o)
                0x000000000000a93c                timer_expired
 .any.text.list_init
                0x000000000000a966        0x6 contiki-wismote.a(list.o)
                0x000000000000a966                list_init
 .any.text.list_head
                0x000000000000a96c        0x4 contiki-wismote.a(list.o)
                0x000000000000a96c                list_head
 .any.text.list_tail
                0x000000000000a970       0x12 contiki-wismote.a(list.o)
                0x000000000000a970                list_tail
 .any.text.list_remove
                0x000000000000a982       0x34 contiki-wismote.a(list.o)
                0x000000000000a982                list_remove
 .any.text.list_push
                0x000000000000a9b6       0x16 contiki-wismote.a(list.o)
                0x000000000000a9b6                list_push
 .any.text.list_add
                0x000000000000a9cc       0x26 contiki-wismote.a(list.o)
                0x000000000000a9cc                list_add
 .any.text.list_length
                0x000000000000a9f2       0x10 contiki-wismote.a(list.o)
                0x000000000000a9f2                list_length
 .any.text.list_item_next
                0x000000000000aa02        0xc contiki-wismote.a(list.o)
                0x000000000000aa02                list_item_next
 .any.text.memb_init
                0x000000000000aa0e       0x36 contiki-wismote.a(memb.o)
                0x000000000000aa0e                memb_init
 .any.text.memb_alloc
                0x000000000000aa44       0x3e contiki-wismote.a(memb.o)
                0x000000000000aa44                memb_alloc
 .any.text.memb_free
                0x000000000000aa82       0x3a contiki-wismote.a(memb.o)
                0x000000000000aa82                memb_free
 .any.text.memb_inmemb
                0x000000000000aabc       0x2a contiki-wismote.a(memb.o)
                0x000000000000aabc                memb_inmemb
 .any.text.memb_numfree
                0x000000000000aae6       0x26 contiki-wismote.a(memb.o)
                0x000000000000aae6                memb_numfree
 .any.text.random_rand
                0x000000000000ab0c        0x6 contiki-wismote.a(random.o)
                0x000000000000ab0c                random_rand
 .any.text.uip_ds6_list_loop
                0x000000000000ab12       0x66 contiki-wismote.a(uip-ds6.o)
                0x000000000000ab12                uip_ds6_list_loop
 .any.text.uip_ds6_prefix_add
                0x000000000000ab78       0x70 contiki-wismote.a(uip-ds6.o)
                0x000000000000ab78                uip_ds6_prefix_add
 .any.text.uip_ds6_is_addr_onlink
                0x000000000000abe8       0x42 contiki-wismote.a(uip-ds6.o)
                0x000000000000abe8                uip_ds6_is_addr_onlink
 .any.text.uip_ds6_addr_lookup
                0x000000000000ac2a       0x2a contiki-wismote.a(uip-ds6.o)
                0x000000000000ac2a                uip_ds6_addr_lookup
 .any.text.uip_ds6_get_link_local
                0x000000000000ac54       0x3e contiki-wismote.a(uip-ds6.o)
                0x000000000000ac54                uip_ds6_get_link_local
 .any.text.uip_ds6_maddr_add
                0x000000000000ac92       0x48 contiki-wismote.a(uip-ds6.o)
                0x000000000000ac92                uip_ds6_maddr_add
 .any.text.uip_ds6_addr_add
                0x000000000000acda       0xb4 contiki-wismote.a(uip-ds6.o)
                0x000000000000acda                uip_ds6_addr_add
 .any.text.uip_ds6_maddr_rm
                0x000000000000ad8e        0xa contiki-wismote.a(uip-ds6.o)
                0x000000000000ad8e                uip_ds6_maddr_rm
 .any.text.uip_ds6_maddr_lookup
                0x000000000000ad98       0x2a contiki-wismote.a(uip-ds6.o)
                0x000000000000ad98                uip_ds6_maddr_lookup
 .any.text.uip_ds6_addr_rm
                0x000000000000adc2       0x54 contiki-wismote.a(uip-ds6.o)
                0x000000000000adc2                uip_ds6_addr_rm
 .any.text.uip_ds6_periodic
                0x000000000000ae16       0x4a contiki-wismote.a(uip-ds6.o)
                0x000000000000ae16                uip_ds6_periodic
 .any.text.uip_ds6_set_addr_iid
                0x000000000000ae60       0x14 contiki-wismote.a(uip-ds6.o)
                0x000000000000ae60                uip_ds6_set_addr_iid
 .any.text.get_match_length
                0x000000000000ae74       0x3c contiki-wismote.a(uip-ds6.o)
                0x000000000000ae74                get_match_length
 .any.text.uip_ds6_select_src
                0x000000000000aeb0       0x9a contiki-wismote.a(uip-ds6.o)
                0x000000000000aeb0                uip_ds6_select_src
 .any.text.uip_ds6_compute_reachable_time
                0x000000000000af4a       0x36 contiki-wismote.a(uip-ds6.o)
                0x000000000000af4a                uip_ds6_compute_reachable_time
 .any.text.uip_ds6_init
                0x000000000000af80      0x138 contiki-wismote.a(uip-ds6.o)
                0x000000000000af80                uip_ds6_init
 .any.text.call_route_callback
                0x000000000000b0b8       0x40 contiki-wismote.a(uip-ds6-route.o)
 .any.text.uip_ds6_route_init
                0x000000000000b0f8       0x36 contiki-wismote.a(uip-ds6-route.o)
                0x000000000000b0f8                uip_ds6_route_init
 .any.text.uip_ds6_route_nexthop
                0x000000000000b12e       0x1a contiki-wismote.a(uip-ds6-route.o)
                0x000000000000b12e                uip_ds6_route_nexthop
 .any.text.uip_ds6_route_head
                0x000000000000b148        0xa contiki-wismote.a(uip-ds6-route.o)
                0x000000000000b148                uip_ds6_route_head
 .any.text.uip_ds6_route_next
                0x000000000000b152        0xe contiki-wismote.a(uip-ds6-route.o)
                0x000000000000b152                uip_ds6_route_next
 .any.text.uip_ds6_route_lookup
                0x000000000000b160       0x6e contiki-wismote.a(uip-ds6-route.o)
                0x000000000000b160                uip_ds6_route_lookup
 .any.text.uip_ds6_route_rm
                0x000000000000b1ce       0xa2 contiki-wismote.a(uip-ds6-route.o)
                0x000000000000b1ce                uip_ds6_route_rm
 .any.text.rm_routelist
                0x000000000000b270       0x34 contiki-wismote.a(uip-ds6-route.o)
 .any.text.rm_routelist_callback
                0x000000000000b2a4        0x6 contiki-wismote.a(uip-ds6-route.o)
 .any.text.uip_ds6_route_add
                0x000000000000b2aa       0xf8 contiki-wismote.a(uip-ds6-route.o)
                0x000000000000b2aa                uip_ds6_route_add
 .any.text.uip_ds6_defrt_rm
                0x000000000000b3a2       0x44 contiki-wismote.a(uip-ds6-route.o)
                0x000000000000b3a2                uip_ds6_defrt_rm
 .any.text.uip_ds6_defrt_lookup
                0x000000000000b3e6       0x32 contiki-wismote.a(uip-ds6-route.o)
                0x000000000000b3e6                uip_ds6_defrt_lookup
 .any.text.uip_ds6_defrt_add
                0x000000000000b418       0x68 contiki-wismote.a(uip-ds6-route.o)
                0x000000000000b418                uip_ds6_defrt_add
 .any.text.uip_ds6_defrt_choose
                0x000000000000b480       0x36 contiki-wismote.a(uip-ds6-route.o)
                0x000000000000b480                uip_ds6_defrt_choose
 .any.text.uip_ds6_defrt_periodic
                0x000000000000b4b6       0x38 contiki-wismote.a(uip-ds6-route.o)
                0x000000000000b4b6                uip_ds6_defrt_periodic
 .any.text.chksum
                0x000000000000b4ee       0x32 contiki-wismote.a(uip6.o)
 .any.text.upper_layer_chksum
                0x000000000000b520       0x56 contiki-wismote.a(uip6.o)
 .any.text.ext_hdr_options_process
                0x000000000000b576       0xc2 contiki-wismote.a(uip6.o)
 .any.text.uip_icmp6chksum
                0x000000000000b638        0xa contiki-wismote.a(uip6.o)
                0x000000000000b638                uip_icmp6chksum
 .any.text.uip_udpchksum
                0x000000000000b642        0xa contiki-wismote.a(uip6.o)
                0x000000000000b642                uip_udpchksum
 .any.text.uip_init
                0x000000000000b64c       0x36 contiki-wismote.a(uip6.o)
                0x000000000000b64c                uip_init
 .any.text.remove_ext_hdr
                0x000000000000b682       0x54 contiki-wismote.a(uip6.o)
                0x000000000000b682                remove_ext_hdr
 .any.text.uip_udp_new
                0x000000000000b6d6       0xb8 contiki-wismote.a(uip6.o)
                0x000000000000b6d6                uip_udp_new
 .any.text.uip_process
                0x000000000000b78e      0x48a contiki-wismote.a(uip6.o)
                0x000000000000b78e                uip_process
 .any.text.uip_htonl
                0x000000000000bc18       0x2a contiki-wismote.a(uip6.o)
                0x000000000000bc18                uip_htonl
 .any.text.uip_ds6_nbr_rm
                0x000000000000bc42       0x1a contiki-wismote.a(uip-ds6-nbr.o)
                0x000000000000bc42                uip_ds6_nbr_rm
 .any.text.uip_ds6_neighbors_init
                0x000000000000bc5c        0xe contiki-wismote.a(uip-ds6-nbr.o)
                0x000000000000bc5c                uip_ds6_neighbors_init
 .any.text.uip_ds6_nbr_add
                0x000000000000bc6a       0x54 contiki-wismote.a(uip-ds6-nbr.o)
                0x000000000000bc6a                uip_ds6_nbr_add
 .any.text.uip_ds6_nbr_get_ll
                0x000000000000bcbe        0xc contiki-wismote.a(uip-ds6-nbr.o)
                0x000000000000bcbe                uip_ds6_nbr_get_ll
 .any.text.uip_ds6_nbr_lookup
                0x000000000000bcca       0x3e contiki-wismote.a(uip-ds6-nbr.o)
                0x000000000000bcca                uip_ds6_nbr_lookup
 .any.text.uip_ds6_nbr_ll_lookup
                0x000000000000bd08        0xc contiki-wismote.a(uip-ds6-nbr.o)
                0x000000000000bd08                uip_ds6_nbr_ll_lookup
 .any.text.uip_ds6_nbr_ipaddr_from_lladdr
                0x000000000000bd14        0x6 contiki-wismote.a(uip-ds6-nbr.o)
                0x000000000000bd14                uip_ds6_nbr_ipaddr_from_lladdr
 .any.text.uip_ds6_nbr_lladdr_from_ipaddr
                0x000000000000bd1a       0x12 contiki-wismote.a(uip-ds6-nbr.o)
                0x000000000000bd1a                uip_ds6_nbr_lladdr_from_ipaddr
 .any.text.uip_ds6_link_neighbor_callback
                0x000000000000bd2c       0x26 contiki-wismote.a(uip-ds6-nbr.o)
                0x000000000000bd2c                uip_ds6_link_neighbor_callback
 .any.text.uip_ds6_neighbor_periodic
                0x000000000000bd52      0x11e contiki-wismote.a(uip-ds6-nbr.o)
                0x000000000000bd52                uip_ds6_neighbor_periodic
 .any.text.na_input
                0x000000000000be70      0x1a0 contiki-wismote.a(uip-nd6.o)
 .any.text.ns_input
                0x000000000000c010      0x246 contiki-wismote.a(uip-nd6.o)
 .any.text.uip_nd6_ns_output
                0x000000000000c256      0x176 contiki-wismote.a(uip-nd6.o)
                0x000000000000c256                uip_nd6_ns_output
 .any.text.uip_nd6_init
                0x000000000000c3cc       0x12 contiki-wismote.a(uip-nd6.o)
                0x000000000000c3cc                uip_nd6_init
 .any.text.set_packet_attrs
                0x000000000000c3de       0x46 contiki-wismote.a(sicslowpan.o)
 .any.text.addr_context_lookup_by_number
                0x000000000000c424       0x30 contiki-wismote.a(sicslowpan.o)
 .any.text.compress_addr_64
                0x000000000000c454       0x9a contiki-wismote.a(sicslowpan.o)
 .any.text.uncompress_addr
                0x000000000000c4ee       0x96 contiki-wismote.a(sicslowpan.o)
 .any.text.input
                0x000000000000c584      0x5e2 contiki-wismote.a(sicslowpan.o)
 .any.text.sicslowpan_init
                0x000000000000cb66       0x26 contiki-wismote.a(sicslowpan.o)
                0x000000000000cb66                sicslowpan_init
 .any.text.addr_context_lookup_by_prefix
                0x000000000000cb8c       0x4a contiki-wismote.a(sicslowpan.o)
 .any.text.packet_sent
                0x000000000000cbd6       0x22 contiki-wismote.a(sicslowpan.o)
 .any.text.send_packet
                0x000000000000cbf8       0x1a contiki-wismote.a(sicslowpan.o)
 .any.text.output
                0x000000000000cc12      0x6a6 contiki-wismote.a(sicslowpan.o)
 .any.text.uip_debug_ipaddr_print
                0x000000000000d2b8       0x72 contiki-wismote.a(uip-debug.o)
                0x000000000000d2b8                uip_debug_ipaddr_print
 .any.text.uip_udp_packet_send
                0x000000000000d32a       0x2e contiki-wismote.a(uip-udp-packet.)
                0x000000000000d32a                uip_udp_packet_send
 .any.text.tcpip_output
                0x000000000000d358       0x10 contiki-wismote.a(tcpip.o)
                0x000000000000d358                tcpip_output
 .any.text.tcpip_set_outputfunc
                0x000000000000d368        0x6 contiki-wismote.a(tcpip.o)
                0x000000000000d368                tcpip_set_outputfunc
 .any.text.udp_new
                0x000000000000d36e       0x1a contiki-wismote.a(tcpip.o)
                0x000000000000d36e                udp_new
 .any.text.tcpip_input
                0x000000000000d388       0x16 contiki-wismote.a(tcpip.o)
                0x000000000000d388                tcpip_input
 .any.text.tcpip_ipv6_output
                0x000000000000d39e      0x14e contiki-wismote.a(tcpip.o)
                0x000000000000d39e                tcpip_ipv6_output
 .any.text.process_thread_tcpip_process
                0x000000000000d4ec       0xd0 contiki-wismote.a(tcpip.o)
 .any.text.tcpip_uipcall
                0x000000000000d5bc       0x2a contiki-wismote.a(tcpip.o)
                0x000000000000d5bc                tcpip_uipcall
 .any.text.rpl_verify_header
                0x000000000000d5e6       0xae contiki-wismote.a(rpl-ext-header.)
                0x000000000000d5e6                rpl_verify_header
 .any.text.rpl_update_header_empty
                0x000000000000d694      0x12a contiki-wismote.a(rpl-ext-header.)
                0x000000000000d694                rpl_update_header_empty
 .any.text.rpl_update_header_final
                0x000000000000d7be       0x90 contiki-wismote.a(rpl-ext-header.)
                0x000000000000d7be                rpl_update_header_final
 .any.text.rpl_invert_header
                0x000000000000d84e       0x74 contiki-wismote.a(rpl-ext-header.)
                0x000000000000d84e                rpl_invert_header
 .any.text.rpl_insert_header
                0x000000000000d8c2       0x12 contiki-wismote.a(rpl-ext-header.)
                0x000000000000d8c2                rpl_insert_header
 .any.text.rpl_get_mode
                0x000000000000d8d4        0x6 contiki-wismote.a(rpl.o)
                0x000000000000d8d4                rpl_get_mode
 .any.text.rpl_purge_routes
                0x000000000000d8da       0x96 contiki-wismote.a(rpl.o)
                0x000000000000d8da                rpl_purge_routes
 .any.text.rpl_remove_routes
                0x000000000000d970       0x22 contiki-wismote.a(rpl.o)
                0x000000000000d970                rpl_remove_routes
 .any.text.rpl_remove_routes_by_nexthop
                0x000000000000d992       0x3e contiki-wismote.a(rpl.o)
                0x000000000000d992                rpl_remove_routes_by_nexthop
 .any.text.rpl_add_route
                0x000000000000d9d0       0x48 contiki-wismote.a(rpl.o)
                0x000000000000d9d0                rpl_add_route
 .any.text.rpl_link_neighbor_callback
                0x000000000000da18       0x74 contiki-wismote.a(rpl.o)
                0x000000000000da18                rpl_link_neighbor_callback
 .any.text.rpl_ipv6_neighbor_callback
                0x000000000000da8c       0x1e contiki-wismote.a(rpl.o)
                0x000000000000da8c                rpl_ipv6_neighbor_callback
 .any.text.rpl_init
                0x000000000000daaa       0x4a contiki-wismote.a(rpl.o)
                0x000000000000daaa                rpl_init
 .any.text.reset
                0x000000000000daf4        0x2 contiki-wismote.a(rpl-mrhof.o)
 .any.text.update_metric_container
                0x000000000000daf6        0x6 contiki-wismote.a(rpl-mrhof.o)
 .any.text.calculate_rank
                0x000000000000dafc       0x3e contiki-wismote.a(rpl-mrhof.o)
 .any.text.neighbor_link_callback
                0x000000000000db3a       0x82 contiki-wismote.a(rpl-mrhof.o)
 .any.text.best_dag
                0x000000000000dbbc       0x2e contiki-wismote.a(rpl-mrhof.o)
 .any.text.best_parent
                0x000000000000dbea       0x68 contiki-wismote.a(rpl-mrhof.o)
 .any.text.lollipop_greater_than
                0x000000000000dc52       0x3c contiki-wismote.a(rpl-dag.o)
 .any.text.find_parent_any_dag_any_instance
                0x000000000000dc8e       0x14 contiki-wismote.a(rpl-dag.o)
 .any.text.rpl_set_preferred_parent
                0x000000000000dca2       0x2c contiki-wismote.a(rpl-dag.o)
 .any.text.set_ip_from_prefix
                0x000000000000dcce       0x30 contiki-wismote.a(rpl-dag.o)
 .any.text.check_prefix
                0x000000000000dcfe       0x70 contiki-wismote.a(rpl-dag.o)
 .any.text.rpl_get_nbr
                0x000000000000dd6e       0x1e contiki-wismote.a(rpl-dag.o)
                0x000000000000dd6e                rpl_get_nbr
 .any.text.rpl_dag_init
                0x000000000000dd8c        0xe contiki-wismote.a(rpl-dag.o)
                0x000000000000dd8c                rpl_dag_init
 .any.text.rpl_get_parent
                0x000000000000dd9a        0xc contiki-wismote.a(rpl-dag.o)
                0x000000000000dd9a                rpl_get_parent
 .any.text.rpl_get_parent_ipaddr
                0x000000000000dda6       0x10 contiki-wismote.a(rpl-dag.o)
                0x000000000000dda6                rpl_get_parent_ipaddr
 .any.text.rpl_set_prefix
                0x000000000000ddb6       0x74 contiki-wismote.a(rpl-dag.o)
                0x000000000000ddb6                rpl_set_prefix
 .any.text.rpl_set_default_route
                0x000000000000de2a       0x60 contiki-wismote.a(rpl-dag.o)
                0x000000000000de2a                rpl_set_default_route
 .any.text.rpl_alloc_instance
                0x000000000000de8a       0x34 contiki-wismote.a(rpl-dag.o)
                0x000000000000de8a                rpl_alloc_instance
 .any.text.rpl_add_parent
                0x000000000000debe       0x4e contiki-wismote.a(rpl-dag.o)
                0x000000000000debe                rpl_add_parent
 .any.text.rpl_find_parent
                0x000000000000df0c       0x1c contiki-wismote.a(rpl-dag.o)
                0x000000000000df0c                rpl_find_parent
 .any.text.rpl_find_parent_any_dag
                0x000000000000df28       0x24 contiki-wismote.a(rpl-dag.o)
                0x000000000000df28                rpl_find_parent_any_dag
 .any.text.rpl_select_parent
                0x000000000000df4c       0x76 contiki-wismote.a(rpl-dag.o)
                0x000000000000df4c                rpl_select_parent
 .any.text.rpl_select_dag
                0x000000000000dfc2      0x196 contiki-wismote.a(rpl-dag.o)
                0x000000000000dfc2                rpl_select_dag
 .any.text.rpl_nullify_parent
                0x000000000000e158       0x50 contiki-wismote.a(rpl-dag.o)
                0x000000000000e158                rpl_nullify_parent
 .any.text.rpl_remove_parent
                0x000000000000e1a8       0x16 contiki-wismote.a(rpl-dag.o)
                0x000000000000e1a8                rpl_remove_parent
 .any.text.nbr_callback
                0x000000000000e1be        0x6 contiki-wismote.a(rpl-dag.o)
 .any.text.remove_parents.constprop.5
                0x000000000000e1c4       0x2e contiki-wismote.a(rpl-dag.o)
 .any.text.rpl_free_dag
                0x000000000000e1f2       0x34 contiki-wismote.a(rpl-dag.o)
                0x000000000000e1f2                rpl_free_dag
 .any.text.rpl_move_parent
                0x000000000000e226       0x52 contiki-wismote.a(rpl-dag.o)
                0x000000000000e226                rpl_move_parent
 .any.text.rpl_get_any_dag
                0x000000000000e278       0x16 contiki-wismote.a(rpl-dag.o)
                0x000000000000e278                rpl_get_any_dag
 .any.text.rpl_get_instance
                0x000000000000e28e       0x16 contiki-wismote.a(rpl-dag.o)
                0x000000000000e28e                rpl_get_instance
 .any.text.rpl_alloc_dag
                0x000000000000e2a4       0x60 contiki-wismote.a(rpl-dag.o)
                0x000000000000e2a4                rpl_alloc_dag
 .any.text.rpl_repair_root
                0x000000000000e304       0x4c contiki-wismote.a(rpl-dag.o)
                0x000000000000e304                rpl_repair_root
 .any.text.rpl_set_root
                0x000000000000e350      0x11a contiki-wismote.a(rpl-dag.o)
                0x000000000000e350                rpl_set_root
 .any.text.rpl_find_of
                0x000000000000e46a       0x10 contiki-wismote.a(rpl-dag.o)
                0x000000000000e46a                rpl_find_of
 .any.text.rpl_join_instance
                0x000000000000e47a      0x128 contiki-wismote.a(rpl-dag.o)
                0x000000000000e47a                rpl_join_instance
 .any.text.rpl_local_repair
                0x000000000000e5a2       0x68 contiki-wismote.a(rpl-dag.o)
                0x000000000000e5a2                rpl_local_repair
 .any.text.rpl_process_parent_event
                0x000000000000e60a       0x6c contiki-wismote.a(rpl-dag.o)
                0x000000000000e60a                rpl_process_parent_event
 .any.text.rpl_recalculate_ranks
                0x000000000000e676       0x46 contiki-wismote.a(rpl-dag.o)
                0x000000000000e676                rpl_recalculate_ranks
 .any.text.rpl_add_dag
                0x000000000000e6bc      0x102 contiki-wismote.a(rpl-dag.o)
                0x000000000000e6bc                rpl_add_dag
 .any.text.rpl_process_dio
                0x000000000000e7be      0x2e0 contiki-wismote.a(rpl-dag.o)
                0x000000000000e7be                rpl_process_dio
 .any.text.rpl_lock_parent
                0x000000000000ea9e        0xc contiki-wismote.a(rpl-dag.o)
                0x000000000000ea9e                rpl_lock_parent
 .any.text.queuebuf_init
                0x000000000000eaaa       0x12 contiki-wismote.a(queuebuf.o)
                0x000000000000eaaa                queuebuf_init
 .any.text.queuebuf_numfree
                0x000000000000eabc        0xa contiki-wismote.a(queuebuf.o)
                0x000000000000eabc                queuebuf_numfree
 .any.text.queuebuf_new_from_packetbuf
                0x000000000000eac6       0x4e contiki-wismote.a(queuebuf.o)
                0x000000000000eac6                queuebuf_new_from_packetbuf
 .any.text.queuebuf_free
                0x000000000000eb14       0x2a contiki-wismote.a(queuebuf.o)
                0x000000000000eb14                queuebuf_free
 .any.text.queuebuf_to_packetbuf
                0x000000000000eb3e       0x32 contiki-wismote.a(queuebuf.o)
                0x000000000000eb3e                queuebuf_to_packetbuf
 .any.text.item_from_index
                0x000000000000eb70       0x2a contiki-wismote.a(nbr-table.o)
 .any.text.index_from_key
                0x000000000000eb9a       0x26 contiki-wismote.a(nbr-table.o)
 .any.text.index_from_item
                0x000000000000ebc0       0x1e contiki-wismote.a(nbr-table.o)
 .any.text.nbr_set_bit
                0x000000000000ebde       0x50 contiki-wismote.a(nbr-table.o)
 .any.text.index_from_lladdr
                0x000000000000ec2e       0x3e contiki-wismote.a(nbr-table.o)
 .any.text.nbr_get_bit.constprop.0
                0x000000000000ec6c       0x2c contiki-wismote.a(nbr-table.o)
 .any.text.nbr_table_register
                0x000000000000ec98       0x26 contiki-wismote.a(nbr-table.o)
                0x000000000000ec98                nbr_table_register
 .any.text.nbr_table_next
                0x000000000000ecbe       0x4c contiki-wismote.a(nbr-table.o)
                0x000000000000ecbe                nbr_table_next
 .any.text.nbr_table_head
                0x000000000000ed0a       0x36 contiki-wismote.a(nbr-table.o)
                0x000000000000ed0a                nbr_table_head
 .any.text.nbr_table_add_lladdr
                0x000000000000ed40      0x110 contiki-wismote.a(nbr-table.o)
                0x000000000000ed40                nbr_table_add_lladdr
 .any.text.nbr_table_get_from_lladdr
                0x000000000000ee50       0x28 contiki-wismote.a(nbr-table.o)
                0x000000000000ee50                nbr_table_get_from_lladdr
 .any.text.nbr_table_remove
                0x000000000000ee78       0x2a contiki-wismote.a(nbr-table.o)
                0x000000000000ee78                nbr_table_remove
 .any.text.nbr_table_lock
                0x000000000000eea2       0x10 contiki-wismote.a(nbr-table.o)
                0x000000000000eea2                nbr_table_lock
 .any.text.nbr_table_unlock
                0x000000000000eeb2       0x10 contiki-wismote.a(nbr-table.o)
                0x000000000000eeb2                nbr_table_unlock
 .any.text.nbr_table_get_lladdr
                0x000000000000eec2       0x20 contiki-wismote.a(nbr-table.o)
                0x000000000000eec2                nbr_table_get_lladdr
 .any.text.packetbuf_compact
                0x000000000000eee2       0x2e contiki-wismote.a(packetbuf.o)
                0x000000000000eee2                packetbuf_compact
 .any.text.packetbuf_copyto
                0x000000000000ef10       0x46 contiki-wismote.a(packetbuf.o)
                0x000000000000ef10                packetbuf_copyto
 .any.text.packetbuf_hdrreduce
                0x000000000000ef56       0x1a contiki-wismote.a(packetbuf.o)
                0x000000000000ef56                packetbuf_hdrreduce
 .any.text.packetbuf_set_datalen
                0x000000000000ef70        0x6 contiki-wismote.a(packetbuf.o)
                0x000000000000ef70                packetbuf_set_datalen
 .any.text.packetbuf_dataptr
                0x000000000000ef76        0xe contiki-wismote.a(packetbuf.o)
                0x000000000000ef76                packetbuf_dataptr
 .any.text.packetbuf_hdrptr
                0x000000000000ef84        0xa contiki-wismote.a(packetbuf.o)
                0x000000000000ef84                packetbuf_hdrptr
 .any.text.packetbuf_datalen
                0x000000000000ef8e        0x6 contiki-wismote.a(packetbuf.o)
                0x000000000000ef8e                packetbuf_datalen
 .any.text.packetbuf_hdrlen
                0x000000000000ef94       0x10 contiki-wismote.a(packetbuf.o)
                0x000000000000ef94                packetbuf_hdrlen
 .any.text.packetbuf_totlen
                0x000000000000efa4        0xc contiki-wismote.a(packetbuf.o)
                0x000000000000efa4                packetbuf_totlen
 .any.text.packetbuf_hdralloc
                0x000000000000efb0       0x2a contiki-wismote.a(packetbuf.o)
                0x000000000000efb0                packetbuf_hdralloc
 .any.text.packetbuf_attr_clear
                0x000000000000efda       0x28 contiki-wismote.a(packetbuf.o)
                0x000000000000efda                packetbuf_attr_clear
 .any.text.packetbuf_clear
                0x000000000000f002       0x1a contiki-wismote.a(packetbuf.o)
                0x000000000000f002                packetbuf_clear
 .any.text.packetbuf_copyfrom
                0x000000000000f01c       0x2a contiki-wismote.a(packetbuf.o)
                0x000000000000f01c                packetbuf_copyfrom
 .any.text.packetbuf_attr_copyto
                0x000000000000f046       0x22 contiki-wismote.a(packetbuf.o)
                0x000000000000f046                packetbuf_attr_copyto
 .any.text.packetbuf_attr_copyfrom
                0x000000000000f068       0x24 contiki-wismote.a(packetbuf.o)
                0x000000000000f068                packetbuf_attr_copyfrom
 .any.text.packetbuf_holds_broadcast
                0x000000000000f08c        0xe contiki-wismote.a(packetbuf.o)
                0x000000000000f08c                packetbuf_holds_broadcast
 .any.text.linkaddr_copy
                0x000000000000f09a        0x8 contiki-wismote.a(linkaddr.o)
                0x000000000000f09a                linkaddr_copy
 .any.text.linkaddr_cmp
                0x000000000000f0a2       0x12 contiki-wismote.a(linkaddr.o)
                0x000000000000f0a2                linkaddr_cmp
 .any.text.linkaddr_set_node_addr
                0x000000000000f0b4        0xc contiki-wismote.a(linkaddr.o)
                0x000000000000f0b4                linkaddr_set_node_addr
 .any.text.send_packet
                0x000000000000f0c0        0x6 contiki-wismote.a(nullmac.o)
 .any.text.packet_input
                0x000000000000f0c6        0x6 contiki-wismote.a(nullmac.o)
 .any.text.on   0x000000000000f0cc        0x6 contiki-wismote.a(nullmac.o)
 .any.text.off  0x000000000000f0d2        0x6 contiki-wismote.a(nullmac.o)
 .any.text.channel_check_interval
                0x000000000000f0d8        0x4 contiki-wismote.a(nullmac.o)
 .any.text.init
                0x000000000000f0dc        0x2 contiki-wismote.a(nullmac.o)
 .any.text.on   0x000000000000f0de        0x6 contiki-wismote.a(nullrdc.o)
 .any.text.channel_check_interval
                0x000000000000f0e4        0x4 contiki-wismote.a(nullrdc.o)
 .any.text.init
                0x000000000000f0e8        0x6 contiki-wismote.a(nullrdc.o)
 .any.text.off  0x000000000000f0ee       0x10 contiki-wismote.a(nullrdc.o)
 .any.text.packet_input
                0x000000000000f0fe       0x40 contiki-wismote.a(nullrdc.o)
 .any.text.send_one_packet
                0x000000000000f13e      0x114 contiki-wismote.a(nullrdc.o)
 .any.text.send_list
                0x000000000000f252       0x28 contiki-wismote.a(nullrdc.o)
 .any.text.send_packet
                0x000000000000f27a        0x6 contiki-wismote.a(nullrdc.o)
 .any.text.create_frame.isra.0
                0x000000000000f280      0x104 contiki-wismote.a(framer-802154.o)
 .any.text.create
                0x000000000000f384        0x8 contiki-wismote.a(framer-802154.o)
 .any.text.hdr_length
                0x000000000000f38c        0x8 contiki-wismote.a(framer-802154.o)
 .any.text.parse
                0x000000000000f394       0xa2 contiki-wismote.a(framer-802154.o)
 .any.text.field_len
                0x000000000000f436       0x8c contiki-wismote.a(frame802154.o)
 .any.text.frame802154_hdrlen
                0x000000000000f4c2       0x2e contiki-wismote.a(frame802154.o)
                0x000000000000f4c2                frame802154_hdrlen
 .any.text.frame802154_create
                0x000000000000f4f0      0x112 contiki-wismote.a(frame802154.o)
                0x000000000000f4f0                frame802154_create
 .any.text.mac_call_sent_callback
                0x000000000000f602       0x14 contiki-wismote.a(mac.o)
                0x000000000000f602                mac_call_sent_callback
 .any.text.framer_canonical_create_and_secure
                0x000000000000f616       0x20 contiki-wismote.a(framer.o)
                0x000000000000f616                framer_canonical_create_and_secure
 .any.text.bootstrap
                0x000000000000f636        0x4 contiki-wismote.a(nullsec.o)
 .any.text.send
                0x000000000000f63a        0xa contiki-wismote.a(nullsec.o)
 .any.text.on_frame_created
                0x000000000000f644        0x4 contiki-wismote.a(nullsec.o)
 .any.text.input
                0x000000000000f648        0x6 contiki-wismote.a(nullsec.o)
 .any.text.get_overhead
                0x000000000000f64e        0x4 contiki-wismote.a(nullsec.o)
 .any.text.spi_init
                0x000000000000f652       0x32 contiki-wismote.a(spi.o)
                0x000000000000f652                spi_init
 .any.text.uip_icmp6_register_input_handler
                0x000000000000f684        0xc contiki-wismote.a(uip-icmp6.o)
                0x000000000000f684                uip_icmp6_register_input_handler

.rodata         0x000000000000f690      0x781
                0x000000000000f690                . = ALIGN (0x2)
 *(.rodata .rodata.* .gnu.linkonce.r.*)
 .rodata.print_local_addresses
                0x000000000000f690       0x62 park.co
 .rodata.process_thread_park_client
                0x000000000000f6f2       0x4e park.co
 .rodata.process_thread_park_server
                0x000000000000f740       0xc6 park.co
 .rodata.autostart_processes
                0x000000000000f806        0x6 park.co
                0x000000000000f806                autostart_processes
 .rodata        0x000000000000f80c       0x18 park.co
 .rodata.res_post_handler
                0x000000000000f824       0x15 obj_wismote/parkevent.o
 .rodata        0x000000000000f839       0x13 obj_wismote/parkevent.o
 .rodata.DataLayer_addOrReplaceRecords
                0x000000000000f84c       0x2c obj_wismote/dataLayer.o
 .rodata.DataLayer_getDataToSend
                0x000000000000f878       0x16 obj_wismote/dataLayer.o
 .rodata        0x000000000000f88e      0x10b obj_wismote/contiki-wismote-main.o
 .rodata.coap_serialize_message
                0x000000000000f999       0x2f contiki-wismote.a(er-coap.o)
 .rodata.coap_parse_message
                0x000000000000f9c8       0x5a contiki-wismote.a(er-coap.o)
 .rodata        0x000000000000fa22        0x1 contiki-wismote.a(er-coap.o)
 .rodata.process_thread_coap_engine
                0x000000000000fa23       0x52 contiki-wismote.a(er-coap-engine.)
 .rodata        0x000000000000fa75       0x14 contiki-wismote.a(er-coap-engine.)
 *fill*         0x000000000000fa89        0x1 00
 .rodata.coap_rest_implementation
                0x000000000000fa8a       0xb6 contiki-wismote.a(er-coap-engine.)
                0x000000000000fa8a                coap_rest_implementation
 .rodata.coap_observe_handler
                0x000000000000fb40       0x11 contiki-wismote.a(er-coap-observe)
 .rodata.well_known_core_get_handler
                0x000000000000fb51       0x13 contiki-wismote.a(er-coap-res-wel)
 .rodata        0x000000000000fb64        0x6 contiki-wismote.a(er-coap-res-wel)
 .rodata.classify_notification
                0x000000000000fb6a       0x4f contiki-wismote.a(er-coap-observe)
 .rodata.coap_get_obs_subject_by_token
                0x000000000000fbb9       0x1e contiki-wismote.a(er-coap-observe)
 .rodata.coap_handle_notification
                0x000000000000fbd7       0xe0 contiki-wismote.a(er-coap-observe)
 .rodata        0x000000000000fcb7        0xc contiki-wismote.a(rest-engine.o)
 .rodata        0x000000000000fcc3        0x7 contiki-wismote.a(button-sensor.o)
 .rodata.button_sensor
                0x000000000000fcca        0xe contiki-wismote.a(button-sensor.o)
                0x000000000000fcca                button_sensor
 .rodata        0x000000000000fcd8        0x8 contiki-wismote.a(sensors.o)
 .rodata.cc2520_driver
                0x000000000000fce0       0x38 contiki-wismote.a(cc2520.o)
                0x000000000000fce0                cc2520_driver
 .rodata        0x000000000000fd18        0xe contiki-wismote.a(cc2520.o)
 .rodata        0x000000000000fd26        0xc contiki-wismote.a(etimer.o)
 .rodata        0x000000000000fd32        0xf contiki-wismote.a(ctimer.o)
 .rodata        0x000000000000fd41        0xb contiki-wismote.a(sicslowpan.o)
 .rodata.sicslowpan_driver
                0x000000000000fd4c        0xa contiki-wismote.a(sicslowpan.o)
                0x000000000000fd4c                sicslowpan_driver
 .rodata.llprefix
                0x000000000000fd56        0x2 contiki-wismote.a(sicslowpan.o)
                0x000000000000fd56                llprefix
 .rodata.unc_mxconf
                0x000000000000fd58        0x4 contiki-wismote.a(sicslowpan.o)
                0x000000000000fd58                unc_mxconf
 .rodata.unc_ctxconf
                0x000000000000fd5c        0x4 contiki-wismote.a(sicslowpan.o)
                0x000000000000fd5c                unc_ctxconf
 .rodata.unc_llconf
                0x000000000000fd60        0x4 contiki-wismote.a(sicslowpan.o)
                0x000000000000fd60                unc_llconf
 .rodata.ttl_values
                0x000000000000fd64        0x4 contiki-wismote.a(sicslowpan.o)
 .rodata.uip_debug_ipaddr_print
                0x000000000000fd68       0x15 contiki-wismote.a(uip-debug.o)
 .rodata        0x000000000000fd7d        0xd contiki-wismote.a(tcpip.o)
 .rodata.linkaddr_null
                0x000000000000fd8a        0x8 contiki-wismote.a(linkaddr.o)
                0x000000000000fd8a                linkaddr_null
 .rodata        0x000000000000fd92        0x8 contiki-wismote.a(nullmac.o)
 .rodata.nullmac_driver
                0x000000000000fd9a       0x1a contiki-wismote.a(nullmac.o)
                0x000000000000fd9a                nullmac_driver
 .rodata        0x000000000000fdb4        0x8 contiki-wismote.a(nullrdc.o)
 .rodata.nullrdc_driver
                0x000000000000fdbc       0x1e contiki-wismote.a(nullrdc.o)
                0x000000000000fdbc                nullrdc_driver
 .rodata.framer_802154
                0x000000000000fdda       0x10 contiki-wismote.a(framer-802154.o)
                0x000000000000fdda                framer_802154
 .rodata.CSWTCH.5
                0x000000000000fdea        0x2 contiki-wismote.a(frame802154.o)
 .rodata        0x000000000000fdec        0x8 contiki-wismote.a(nullsec.o)
 .rodata.nullsec_driver
                0x000000000000fdf4       0x16 contiki-wismote.a(nullsec.o)
                0x000000000000fdf4                nullsec_driver
 .rodata.vuprintf
                0x000000000000fe0a        0x7 /opt/compilers/mspgcc-4.7.3/bin/../lib/gcc/msp430/4.7.3/../../../../msp430/lib/mcpu-430x/mmpy-16/msr20/mc20/libc.a(vuprintf.o)
 *(.near.rodata .near.rodata.*)
                0x000000000000fe12                . = ALIGN (0x2)
                0x000000000000fe12                _etext = .

.data           0x0000000000001c00      0x16e load address 0x000000000000fe12
                0x0000000000001c00                . = ALIGN (0x2)
                0x0000000000001c00                __data_start = .
 *(.data .data.* .gnu.linkonce.d.*)
 .data.park_client
                0x0000000000001c00        0xc park.co
                0x0000000000001c00                park_client
 .data.park_server
                0x0000000000001c0c        0xc park.co
                0x0000000000001c0c                park_server
 .data.parkevent
                0x0000000000001c18       0x1c obj_wismote/parkevent.o
                0x0000000000001c18                parkevent
 .data.coap_error_message
                0x0000000000001c34        0x2 contiki-wismote.a(er-coap.o)
                0x0000000000001c34                coap_error_message
 .data.coap_engine
                0x0000000000001c36        0xc contiki-wismote.a(er-coap-engine.)
                0x0000000000001c36                coap_engine
 .data.transactions_memb
                0x0000000000001c42        0x8 contiki-wismote.a(er-coap-transac)
 .data.observers_memb
                0x0000000000001c4a        0x8 contiki-wismote.a(er-coap-observe)
 .data.res_well_known_core
                0x0000000000001c52       0x1c contiki-wismote.a(er-coap-res-wel)
                0x0000000000001c52                res_well_known_core
 .data.rest_engine_process
                0x0000000000001c6e        0xc contiki-wismote.a(rest-engine.o)
                0x0000000000001c6e                rest_engine_process
 .data.sensors  0x0000000000001c7a        0x4 contiki-wismote.a(contiki-wismote)
                0x0000000000001c7a                sensors
 .data.sensors_process
                0x0000000000001c7e        0xc contiki-wismote.a(sensors.o)
                0x0000000000001c7e                sensors_process
 .data.cc2520_process
                0x0000000000001c8a        0xc contiki-wismote.a(cc2520.o)
                0x0000000000001c8a                cc2520_process
 .data.cur_break
                0x0000000000001c96        0x2 contiki-wismote.a(msp430.o)
 .data.etimer_process
                0x0000000000001c98        0xc contiki-wismote.a(etimer.o)
                0x0000000000001c98                etimer_process
 .data.ctimer_process
                0x0000000000001ca4        0xc contiki-wismote.a(ctimer.o)
                0x0000000000001ca4                ctimer_process
 .data.routememb
                0x0000000000001cb0        0x8 contiki-wismote.a(uip-ds6-route.o)
 .data.defaultroutermemb
                0x0000000000001cb8        0x8 contiki-wismote.a(uip-ds6-route.o)
 .data.nbr_routes_struct
                0x0000000000001cc0        0xa contiki-wismote.a(uip-ds6-route.o)
 .data.neighborroutememb
                0x0000000000001cca        0x8 contiki-wismote.a(uip-ds6-route.o)
 .data.ds6_neighbors
                0x0000000000001cd2        0x2 contiki-wismote.a(uip-ds6-nbr.o)
                0x0000000000001cd2                ds6_neighbors
 .data.ds6_neighbors_struct
                0x0000000000001cd4        0xa contiki-wismote.a(uip-ds6-nbr.o)
 .data.ns_input_handler
                0x0000000000001cde        0x8 contiki-wismote.a(uip-nd6.o)
 .data.na_input_handler
                0x0000000000001ce6        0x8 contiki-wismote.a(uip-nd6.o)
 .data.tcpip_process
                0x0000000000001cee        0xc contiki-wismote.a(tcpip.o)
                0x0000000000001cee                tcpip_process
 .data.rpl_mrhof
                0x0000000000001cfa       0x1a contiki-wismote.a(rpl-mrhof.o)
                0x0000000000001cfa                rpl_mrhof
 .data.rpl_parents
                0x0000000000001d14        0x2 contiki-wismote.a(rpl-dag.o)
                0x0000000000001d14                rpl_parents
 .data.rpl_parents_struct
                0x0000000000001d16        0xa contiki-wismote.a(rpl-dag.o)
 .data.buframmem
                0x0000000000001d20        0x8 contiki-wismote.a(queuebuf.o)
 .data.bufmem   0x0000000000001d28        0x8 contiki-wismote.a(queuebuf.o)
 .data.neighbor_addr_mem
                0x0000000000001d30        0x8 contiki-wismote.a(nbr-table.o)
 .data.echo_request_handler
                0x0000000000001d38        0x8 contiki-wismote.a(uip-icmp6.o)
 .data.echo_reply_handler
                0x0000000000001d40        0x8 contiki-wismote.a(uip-icmp6.o)
 .data.dao_sequence
                0x0000000000001d48        0x1 contiki-wismote.a(rpl-icmp6.o)
 *fill*         0x0000000000001d49        0x1 00
 .data.dis_handler
                0x0000000000001d4a        0x8 contiki-wismote.a(rpl-icmp6.o)
 .data.dio_handler
                0x0000000000001d52        0x8 contiki-wismote.a(rpl-icmp6.o)
 .data.dao_handler
                0x0000000000001d5a        0x8 contiki-wismote.a(rpl-icmp6.o)
 .data.dao_ack_handler
                0x0000000000001d62        0x8 contiki-wismote.a(rpl-icmp6.o)
 .data.next     0x0000000000001d6a        0x4 /opt/compilers/mspgcc-4.7.3/bin/../lib/gcc/msp430/4.7.3/../../../../msp430/lib/mcpu-430x/mmpy-16/msr20/mc20/libc.a(rand.o)
 *(.near.data .near.data.*)
                0x0000000000001d6e                . = ALIGN (0x2)
                0x0000000000001d6e                _edata = .
                0x000000000000fe12                __data_load_start = LOADADDR (.data)
                0x000000000000016e                __data_size = SIZEOF (.data)

.bss            0x0000000000001d6e     0x27dc load address 0x000000000000ff80
                0x0000000000001d6e                __bss_start = .
 *(.bss .bss.*)
 .bss.et        0x0000000000001d6e        0xc park.co
 .bss.request_state.5493
                0x0000000000001d7a        0xc park.co
 .bss.leftServer_ipaddr
                0x0000000000001d86       0x10 park.co
 .bss.request_state.5495
                0x0000000000001d96        0xc park.co
 .bss.rightServer_ipaddr
                0x0000000000001da2       0x10 park.co
 .bss.request_state.5502
                0x0000000000001db2        0xc park.co
 .bss.request_state.5504
                0x0000000000001dbe        0xc park.co
 .bss.dataStructure
                0x0000000000001dca        0x2 obj_wismote/dataLayer.o
 .bss.irq_energest.4385
                0x0000000000001dcc        0x4 obj_wismote/contiki-wismote-main.o
 .bss.erbium_status_code
                0x0000000000001dd0        0x2 contiki-wismote.a(er-coap.o)
                0x0000000000001dd0                erbium_status_code
 .bss.udp_conn  0x0000000000001dd2        0x2 contiki-wismote.a(er-coap.o)
 .bss.current_mid
                0x0000000000001dd4        0x2 contiki-wismote.a(er-coap.o)
 .bss.message.5258
                0x0000000000001dd6       0x80 contiki-wismote.a(er-coap-engine.)
 .bss.transaction.5260
                0x0000000000001e56        0x2 contiki-wismote.a(er-coap-engine.)
 .bss.response.5259
                0x0000000000001e58       0x80 contiki-wismote.a(er-coap-engine.)
 .bss.service_cbk
                0x0000000000001ed8        0x4 contiki-wismote.a(er-coap-engine.)
 .bss.more.5302
                0x0000000000001edc        0x1 contiki-wismote.a(er-coap-engine.)
 *fill*         0x0000000000001edd        0x1 00
 .bss.res_block.5303
                0x0000000000001ede        0x4 contiki-wismote.a(er-coap-engine.)
 .bss.block_error.5304
                0x0000000000001ee2        0x1 contiki-wismote.a(er-coap-engine.)
 *fill*         0x0000000000001ee3        0x1 00
 .bss.transaction_handler_process
                0x0000000000001ee4        0x2 contiki-wismote.a(er-coap-transac)
 .bss.transactions_list_list
                0x0000000000001ee6        0x2 contiki-wismote.a(er-coap-transac)
 .bss.transactions_memb_memb_count
                0x0000000000001ee8        0xa contiki-wismote.a(er-coap-transac)
 .bss.transactions_memb_memb_mem
                0x0000000000001ef2      0x94c contiki-wismote.a(er-coap-transac)
 .bss.observers_list_list
                0x000000000000283e        0x2 contiki-wismote.a(er-coap-observe)
 .bss.observers_memb_memb_count
                0x0000000000002840        0x9 contiki-wismote.a(er-coap-observe)
 *fill*         0x0000000000002849        0x1 00
 .bss.observers_memb_memb_mem
                0x000000000000284a      0x1d4 contiki-wismote.a(er-coap-observe)
 .bss.obs_subjects_list_list
                0x0000000000002a1e        0x2 contiki-wismote.a(er-coap-observe)
 .bss.response.5145
                0x0000000000002a20       0x80 contiki-wismote.a(er-coap-observe)
 .bss.restful_services_list
                0x0000000000002aa0        0x2 contiki-wismote.a(rest-engine.o)
 .bss.restful_periodic_services_list
                0x0000000000002aa2        0x2 contiki-wismote.a(rest-engine.o)
 .bss.debouncetimer
                0x0000000000002aa4        0x8 contiki-wismote.a(button-sensor.o)
 .bss.node_id   0x0000000000002aac        0x2 contiki-wismote.a(node-id.o)
                0x0000000000002aac                node_id
 .bss.num_sensors
                0x0000000000002aae        0x1 contiki-wismote.a(sensors.o)
 *fill*         0x0000000000002aaf        0x1 00
 .bss.i.2465    0x0000000000002ab0        0x2 contiki-wismote.a(sensors.o)
 .bss.events.2466
                0x0000000000002ab2        0x2 contiki-wismote.a(sensors.o)
 .bss.last_packet_timestamp
                0x0000000000002ab4        0x2 contiki-wismote.a(cc2520.o)
 .bss.receive_on
                0x0000000000002ab6        0x1 contiki-wismote.a(cc2520.o)
 .bss.locked    0x0000000000002ab7        0x1 contiki-wismote.a(cc2520.o)
 .bss.lock_off  0x0000000000002ab8        0x1 contiki-wismote.a(cc2520.o)
 .bss.lock_on   0x0000000000002ab9        0x1 contiki-wismote.a(cc2520.o)
 .bss.channel   0x0000000000002aba        0x2 contiki-wismote.a(cc2520.o)
 .bss.transmitting
                0x0000000000002abc        0x1 contiki-wismote.a(uart1.o)
 *fill*         0x0000000000002abd        0x1 00
 .bss.uart1_input_handler
                0x0000000000002abe        0x4 contiki-wismote.a(uart1.o)
 .bss.last_tar  0x0000000000002ac2        0x2 contiki-wismote.a(clock.o)
 .bss.count     0x0000000000002ac4        0x4 contiki-wismote.a(clock.o)
 .bss.seconds   0x0000000000002ac8        0x4 contiki-wismote.a(clock.o)
 .bss.leds      0x0000000000002acc        0x1 contiki-wismote.a(leds.o)
 *fill*         0x0000000000002acd        0x1 00
 .bss.counter   0x0000000000002ace        0x2 contiki-wismote.a(watchdog.o)
 .bss.timerlist
                0x0000000000002ad0        0x2 contiki-wismote.a(etimer.o)
 .bss.next_expiration
                0x0000000000002ad2        0x4 contiki-wismote.a(etimer.o)
 .bss.initialized
                0x0000000000002ad6        0x1 contiki-wismote.a(ctimer.o)
 *fill*         0x0000000000002ad7        0x1 00
 .bss.ctimer_list_list
                0x0000000000002ad8        0x2 contiki-wismote.a(ctimer.o)
 .bss.poll_requested
                0x0000000000002ada        0x1 contiki-wismote.a(process.o)
 *fill*         0x0000000000002adb        0x1 00
 .bss.process_current
                0x0000000000002adc        0x2 contiki-wismote.a(process.o)
                0x0000000000002adc                process_current
 .bss.process_list
                0x0000000000002ade        0x2 contiki-wismote.a(process.o)
                0x0000000000002ade                process_list
 .bss.lastevent
                0x0000000000002ae0        0x1 contiki-wismote.a(process.o)
 .bss.fevent    0x0000000000002ae1        0x1 contiki-wismote.a(process.o)
 .bss.nevents   0x0000000000002ae2        0x1 contiki-wismote.a(process.o)
 *fill*         0x0000000000002ae3        0x1 00
 .bss.events    0x0000000000002ae4       0x30 contiki-wismote.a(process.o)
 .bss.ev.2244   0x0000000000002b14        0x1 contiki-wismote.a(process.o)
 *fill*         0x0000000000002b15        0x1 00
 .bss.data.2245
                0x0000000000002b16        0x2 contiki-wismote.a(process.o)
 .bss.receiver.2246
                0x0000000000002b18        0x2 contiki-wismote.a(process.o)
 .bss.p.2247    0x0000000000002b1a        0x2 contiki-wismote.a(process.o)
 .bss.snum.2262
                0x0000000000002b1c        0x1 contiki-wismote.a(process.o)
 *fill*         0x0000000000002b1d        0x1 00
 .bss.next_rtimer
                0x0000000000002b1e        0x2 contiki-wismote.a(rtimer.o)
 .bss.loc_fipaddr
                0x0000000000002b20       0x10 contiki-wismote.a(uip-ds6.o)
 .bss.locaddr   0x0000000000002b30        0x2 contiki-wismote.a(uip-ds6.o)
 .bss.locprefix
                0x0000000000002b32        0x2 contiki-wismote.a(uip-ds6.o)
 .bss.locmaddr  0x0000000000002b34        0x2 contiki-wismote.a(uip-ds6.o)
 .bss.notificationlist_list
                0x0000000000002b36        0x2 contiki-wismote.a(uip-ds6-route.o)
 .bss.defaultrouterlist_list
                0x0000000000002b38        0x2 contiki-wismote.a(uip-ds6-route.o)
 .bss.routelist_list
                0x0000000000002b3a        0x2 contiki-wismote.a(uip-ds6-route.o)
 .bss.num_routes
                0x0000000000002b3c        0x2 contiki-wismote.a(uip-ds6-route.o)
 .bss.routememb_memb_count
                0x0000000000002b3e       0x1e contiki-wismote.a(uip-ds6-route.o)
 .bss.routememb_memb_mem
                0x0000000000002b5c      0x384 contiki-wismote.a(uip-ds6-route.o)
 .bss.defaultroutermemb_memb_count
                0x0000000000002ee0        0x2 contiki-wismote.a(uip-ds6-route.o)
 .bss.defaultroutermemb_memb_mem
                0x0000000000002ee2       0x38 contiki-wismote.a(uip-ds6-route.o)
 .bss._nbr_routes_mem
                0x0000000000002f1a       0x78 contiki-wismote.a(uip-ds6-route.o)
 .bss.neighborroutememb_memb_count
                0x0000000000002f92       0x1e contiki-wismote.a(uip-ds6-route.o)
 .bss.neighborroutememb_memb_mem
                0x0000000000002fb0       0x78 contiki-wismote.a(uip-ds6-route.o)
 .bss.uip_ext_opt_offset
                0x0000000000003028        0x1 contiki-wismote.a(uip6.o)
                0x0000000000003028                uip_ext_opt_offset
 .bss.uip_ext_len
                0x0000000000003029        0x1 contiki-wismote.a(uip6.o)
                0x0000000000003029                uip_ext_len
 .bss.uip_ext_bitmap
                0x000000000000302a        0x1 contiki-wismote.a(uip6.o)
                0x000000000000302a                uip_ext_bitmap
 *fill*         0x000000000000302b        0x1 00
 .bss.lastport  0x000000000000302c        0x2 contiki-wismote.a(uip6.o)
 .bss.c         0x000000000000302e        0x1 contiki-wismote.a(uip6.o)
 *fill*         0x000000000000302f        0x1 00
 .bss._ds6_neighbors_mem
                0x0000000000003030      0x474 contiki-wismote.a(uip-ds6-nbr.o)
 .bss.nd6_opt_offset
                0x00000000000034a4        0x1 contiki-wismote.a(uip-nd6.o)
 *fill*         0x00000000000034a5        0x1 00
 .bss.nd6_opt_llao
                0x00000000000034a6        0x2 contiki-wismote.a(uip-nd6.o)
 .bss.addr      0x00000000000034a8        0x2 contiki-wismote.a(uip-nd6.o)
 .bss.nbr       0x00000000000034aa        0x2 contiki-wismote.a(uip-nd6.o)
 .bss.defrt     0x00000000000034ac        0x2 contiki-wismote.a(uip-nd6.o)
 .bss.callback  0x00000000000034ae        0x2 contiki-wismote.a(sicslowpan.o)
 .bss.addr_contexts
                0x00000000000034b0       0x14 contiki-wismote.a(sicslowpan.o)
 .bss.uncomp_hdr_len
                0x00000000000034c4        0x1 contiki-wismote.a(sicslowpan.o)
 .bss.packetbuf_hdr_len
                0x00000000000034c5        0x1 contiki-wismote.a(sicslowpan.o)
 .bss.packetbuf_ptr
                0x00000000000034c6        0x2 contiki-wismote.a(sicslowpan.o)
 .bss.my_tag    0x00000000000034c8        0x2 contiki-wismote.a(sicslowpan.o)
 .bss.packetbuf_payload_len
                0x00000000000034ca        0x2 contiki-wismote.a(sicslowpan.o)
 .bss.last_tx_status
                0x00000000000034cc        0x2 contiki-wismote.a(sicslowpan.o)
 .bss.hc06_ptr  0x00000000000034ce        0x2 contiki-wismote.a(sicslowpan.o)
 .bss.context   0x00000000000034d0        0x2 contiki-wismote.a(sicslowpan.o)
 .bss.last_rssi
                0x00000000000034d2        0x2 contiki-wismote.a(sicslowpan.o)
 .bss.reass_timer
                0x00000000000034d4        0x8 contiki-wismote.a(sicslowpan.o)
 .bss.sicslowpan_len
                0x00000000000034dc        0x2 contiki-wismote.a(sicslowpan.o)
 .bss.processed_ip_in_len
                0x00000000000034de        0x2 contiki-wismote.a(sicslowpan.o)
 .bss.reass_tag
                0x00000000000034e0        0x2 contiki-wismote.a(sicslowpan.o)
 .bss.sicslowpan_aligned_buf
                0x00000000000034e2       0xf0 contiki-wismote.a(sicslowpan.o)
 .bss.outputfunc
                0x00000000000035d2        0x4 contiki-wismote.a(tcpip.o)
 .bss.periodic  0x00000000000035d6        0xc contiki-wismote.a(tcpip.o)
 .bss.mode      0x00000000000035e2        0x2 contiki-wismote.a(rpl.o)
 .bss._rpl_parents_mem
                0x00000000000035e4      0x168 contiki-wismote.a(rpl-dag.o)
 .bss.buframmem_memb_count
                0x000000000000374c        0x8 contiki-wismote.a(queuebuf.o)
 .bss.buframmem_memb_mem
                0x0000000000003754      0x580 contiki-wismote.a(queuebuf.o)
 .bss.bufmem_memb_count
                0x0000000000003cd4        0x8 contiki-wismote.a(queuebuf.o)
 .bss.bufmem_memb_mem
                0x0000000000003cdc       0x10 contiki-wismote.a(queuebuf.o)
 .bss.num_tables
                0x0000000000003cec        0x2 contiki-wismote.a(nbr-table.o)
 .bss.all_tables
                0x0000000000003cee       0x10 contiki-wismote.a(nbr-table.o)
 .bss.used_map  0x0000000000003cfe       0x1e contiki-wismote.a(nbr-table.o)
 .bss.nbr_table_keys_list
                0x0000000000003d1c        0x2 contiki-wismote.a(nbr-table.o)
 .bss.locked_map
                0x0000000000003d1e       0x1e contiki-wismote.a(nbr-table.o)
 .bss.neighbor_addr_mem_memb_count
                0x0000000000003d3c       0x1e contiki-wismote.a(nbr-table.o)
 .bss.neighbor_addr_mem_memb_mem
                0x0000000000003d5a      0x12c contiki-wismote.a(nbr-table.o)
 .bss.bufptr    0x0000000000003e86        0x2 contiki-wismote.a(packetbuf.o)
 .bss.buflen    0x0000000000003e88        0x2 contiki-wismote.a(packetbuf.o)
 .bss.hdrptr    0x0000000000003e8a        0x1 contiki-wismote.a(packetbuf.o)
 *fill*         0x0000000000003e8b        0x1 00
 .bss.packetbufptr
                0x0000000000003e8c        0x2 contiki-wismote.a(packetbuf.o)
 .bss.packetbuf_aligned
                0x0000000000003e8e       0xb0 contiki-wismote.a(packetbuf.o)
 .bss.initialized
                0x0000000000003f3e        0x1 contiki-wismote.a(framer-802154.o)
 .bss.mac_dsn   0x0000000000003f3f        0x1 contiki-wismote.a(framer-802154.o)
 .bss.input_handler_list_list
                0x0000000000003f40        0x2 contiki-wismote.a(uip-icmp6.o)
 .bss.tmp_ipaddr
                0x0000000000003f42       0x10 contiki-wismote.a(uip-icmp6.o)
 .bss.echo_reply_callback_list_list
                0x0000000000003f52        0x2 contiki-wismote.a(uip-icmp6.o)
 .bss.next_dis  0x0000000000003f54        0x2 contiki-wismote.a(rpl-timers.o)
 .bss.periodic_timer
                0x0000000000003f56       0x16 contiki-wismote.a(rpl-timers.o)
 .bss.dio_send_ok
                0x0000000000003f6c        0x1 contiki-wismote.a(rpl-timers.o)
 *fill*         0x0000000000003f6d        0x1 00
 .bss.received_seqnos
                0x0000000000003f6e       0xa0 contiki-wismote.a(mac-sequence.o)
 .bss.once.1553
                0x000000000000400e        0x1 /opt/compilers/mspgcc-4.7.3/bin/../lib/gcc/msp430/4.7.3/../../../../msp430/lib/mcpu-430x/mmpy-16/msr20/mc20/libc.a(malloc.o)
 *fill*         0x000000000000400f        0x1 00
 .bss.destination_
                0x0000000000004010        0x2 /opt/compilers/mspgcc-4.7.3/bin/../lib/gcc/msp430/4.7.3/../../../../msp430/lib/mcpu-430x/mmpy-16/msr20/mc20/libc.a(sprintf.o)
 .bss.available_
                0x0000000000004012        0x2 /opt/compilers/mspgcc-4.7.3/bin/../lib/gcc/msp430/4.7.3/../../../../msp430/lib/mcpu-430x/mmpy-16/msr20/mc20/libc.a(sprintf.o)
 *(.near.bss .near.bss.*)
 *(COMMON)
 COMMON         0x0000000000004014        0x2 contiki-wismote.a(contiki-wismote)
                0x0000000000004014                sensors_flags
 COMMON         0x0000000000004016        0x1 contiki-wismote.a(sensors.o)
                0x0000000000004016                sensors_event
 *fill*         0x0000000000004017        0x1 00
 COMMON         0x0000000000004018       0x13 contiki-wismote.a(cc2520.o)
                0x0000000000004018                cc2520_sfd_counter
                0x000000000000401a                cc2520_sfd_start_time
                0x000000000000401c                cc2520_sfd_end_time
                0x000000000000401e                cc2520_time_of_departure
                0x0000000000004020                cc2520_packets_seen
                0x0000000000004022                cc2520_packets_read
                0x0000000000004024                cc2520_last_rssi
                0x0000000000004026                cc2520_time_of_arrival
                0x0000000000004028                cc2520_authority_level_of_sender
                0x000000000000402a                cc2520_last_correlation
 *fill*         0x000000000000402b        0x1 00
 COMMON         0x000000000000402c        0x2 contiki-wismote.a(msp430.o)
                0x000000000000402c                msp430_dco_required
 COMMON         0x000000000000402e       0x56 contiki-wismote.a(energest.o)
                0x000000000000402e                energest_total_time
                0x000000000000405e                energest_total_count
                0x0000000000004060                energest_current_mode
                0x000000000000406c                energest_current_time
 COMMON         0x0000000000004084        0x1 contiki-wismote.a(process.o)
                0x0000000000004084                process_maxevents
 *fill*         0x0000000000004085        0x1 00
 COMMON         0x0000000000004086      0x15c contiki-wismote.a(uip-ds6.o)
                0x0000000000004086                uip_ds6_timer_ra
                0x000000000000408e                uip_ds6_if
                0x000000000000417a                uip_ds6_netif_addr_list_offset
                0x000000000000417b                uip_ds6_addr_size
                0x000000000000417c                uip_ds6_prefix_list
                0x00000000000041d6                uip_ds6_timer_periodic
 COMMON         0x00000000000041e2      0x240 contiki-wismote.a(uip6.o)
                0x00000000000041e2                uip_len
                0x00000000000041e4                uip_sappdata
                0x00000000000041e6                uip_lladdr
                0x00000000000041ee                uip_aligned_buf
                0x00000000000042de                uip_flags
                0x00000000000042e0                uip_next_hdr
                0x00000000000042e2                uip_udp_conn
                0x00000000000042e4                uip_appdata
                0x00000000000042e6                uip_conn
                0x00000000000042e8                uip_slen
                0x00000000000042ea                uip_udp_conns
 COMMON         0x0000000000004422        0x8 contiki-wismote.a(sicslowpan.o)
                0x0000000000004422                frag_sender
 COMMON         0x000000000000442a        0x1 contiki-wismote.a(tcpip.o)
                0x000000000000442a                tcpip_event
 *fill*         0x000000000000442b        0x1 00
 COMMON         0x000000000000442c       0xe6 contiki-wismote.a(rpl-dag.o)
                0x000000000000442c                default_instance
                0x000000000000442e                instance_table
 COMMON         0x0000000000004512       0x2e contiki-wismote.a(packetbuf.o)
                0x0000000000004512                packetbuf_addrs
                0x0000000000004522                packetbuf_attrs
 COMMON         0x0000000000004540        0x8 contiki-wismote.a(linkaddr.o)
                0x0000000000004540                linkaddr_node_addr
 COMMON         0x0000000000004548        0x2 /opt/compilers/mspgcc-4.7.3/bin/../lib/gcc/msp430/4.7.3/../../../../msp430/lib/mcpu-430x/mmpy-16/msr20/mc20/libc.a(errno.o)
                0x0000000000004548                errno
                0x000000000000454a                . = ALIGN (0x2)
                0x000000000000454a                __bss_end = .
                0x00000000000027dc                __bss_size = SIZEOF (.bss)

.noinit         0x000000000000454a        0x2 load address 0x000000000000ff80
                0x000000000000454a                . = ALIGN (0x2)
                0x000000000000454a                __noinit_start = .
 *(.noinit .noinit.*)
 .noinit.crt0   0x000000000000454a        0x2 /opt/compilers/mspgcc-4.7.3/bin/../lib/gcc/msp430/4.7.3/mcpu-430x/mmpy-16/msr20/mc20/libcrt0.a(__watchdog_support.o)
                0x000000000000454a                __wdt_clear_value
                0x000000000000454c                . = ALIGN (0x2)
                0x000000000000454c                __noinit_end = .
                0x000000000000454c                . = ALIGN (0x2)
                0x000000000000454c                _end = .

.infomem        0x0000000000001800        0x0
                0x0000000000001800                . = ALIGN (0x2)
 *(.infomem .infomem.*)

.infomemnobits  0x0000000000001800        0x0
                0x0000000000001800                . = ALIGN (0x2)
 *(.infomemnobits .infomemnobits.*)

.infoa          0x0000000000001980        0x0
                0x0000000000001980                . = ALIGN (0x2)
 *(.infoa .infoa.*)

.infob          0x0000000000001900        0x0
                0x0000000000001900                . = ALIGN (0x2)
 *(.infob .infob.*)

.infoc          0x0000000000001880        0x0
                0x0000000000001880                . = ALIGN (0x2)
 *(.infoc .infoc.*)

.infod          0x0000000000001800        0x0
                0x0000000000001800                . = ALIGN (0x2)
 *(.infod .infod.*)
                0x000000000000ffff                PROVIDE (__vte_0, 0xffff)
                0x000000000000ffff                PROVIDE (__vte_1, 0xffff)
                0x000000000000ffff                PROVIDE (__vte_2, 0xffff)
                0x000000000000ffff                PROVIDE (__vte_3, 0xffff)
                0x000000000000ffff                PROVIDE (__vte_4, 0xffff)
                0x000000000000ffff                PROVIDE (__vte_5, 0xffff)
                0x000000000000ffff                PROVIDE (__vte_6, 0xffff)
                0x000000000000ffff                PROVIDE (__vte_7, 0xffff)
                0x000000000000ffff                PROVIDE (__vte_8, 0xffff)
                0x000000000000ffff                PROVIDE (__vte_9, 0xffff)
                0x000000000000ffff                PROVIDE (__vte_10, 0xffff)
                0x000000000000ffff                PROVIDE (__vte_11, 0xffff)
                0x000000000000ffff                PROVIDE (__vte_12, 0xffff)
                0x000000000000ffff                PROVIDE (__vte_13, 0xffff)
                0x000000000000ffff                PROVIDE (__vte_14, 0xffff)
                0x000000000000ffff                PROVIDE (__vte_15, 0xffff)
                0x000000000000ffff                PROVIDE (__vte_16, 0xffff)
                0x000000000000ffff                PROVIDE (__vte_17, 0xffff)
                0x000000000000ffff                PROVIDE (__vte_18, 0xffff)
                0x000000000000ffff                PROVIDE (__vte_19, 0xffff)
                0x000000000000ffff                PROVIDE (__vte_20, 0xffff)
                0x000000000000ffff                PROVIDE (__vte_21, 0xffff)
                0x000000000000ffff                PROVIDE (__vte_22, 0xffff)
                0x000000000000ffff                PROVIDE (__vte_23, 0xffff)
                0x000000000000ffff                PROVIDE (__vte_24, 0xffff)
                0x000000000000ffff                PROVIDE (__vte_25, 0xffff)
                0x000000000000ffff                PROVIDE (__vte_26, 0xffff)
                0x000000000000ffff                PROVIDE (__vte_27, 0xffff)
                0x000000000000ffff                PROVIDE (__vte_28, 0xffff)
                0x000000000000ffff                PROVIDE (__vte_29, 0xffff)
                0x000000000000ffff                PROVIDE (__vte_30, 0xffff)
                0x000000000000ffff                PROVIDE (__vte_31, 0xffff)

.vectors        0x000000000000ff80       0x80
                0x000000000000ff80                __vectors_start = .
 *(.vectors*)
 .vectors       0x000000000000ff80       0x80 /opt/compilers/mspgcc-4.7.3/bin/../lib/gcc/msp430/4.7.3/mcpu-430x/mmpy-16/msr20/mc20/crt0ivtbl64.o
                0x000000000000ff80                __ivtbl_64
                0x0000000000010000                _vectors_end = .

.fartext        0x0000000000010000        0x0
                0x0000000000010000                . = ALIGN (0x2)
 *(.fartext .fartext.*)

.far.text       0x0000000000010000     0x2472
                0x0000000000010000                . = ALIGN (0x2)
 *(.far.text .far.text.*)
 .any.text.frame802154_parse
                0x0000000000010000      0x16c contiki-wismote.a(frame802154.o)
                0x0000000000010000                frame802154_parse
 .any.text.stimer_set
                0x000000000001016c       0x1c contiki-wismote.a(stimer.o)
                0x000000000001016c                stimer_set
 .any.text.stimer_expired
                0x0000000000010188       0x30 contiki-wismote.a(stimer.o)
                0x0000000000010188                stimer_expired
 .any.text.echo_reply_input
                0x00000000000101b8      0x108 contiki-wismote.a(uip-icmp6.o)
 .any.text.echo_request_input
                0x00000000000102c0      0x128 contiki-wismote.a(uip-icmp6.o)
 .any.text.uip_icmp6_input
                0x00000000000103e8       0x44 contiki-wismote.a(uip-icmp6.o)
                0x00000000000103e8                uip_icmp6_input
 .any.text.uip_icmp6_error_output
                0x000000000001042c      0x16c contiki-wismote.a(uip-icmp6.o)
                0x000000000001042c                uip_icmp6_error_output
 .any.text.uip_icmp6_send
                0x0000000000010598       0x84 contiki-wismote.a(uip-icmp6.o)
                0x0000000000010598                uip_icmp6_send
 .any.text.uip_icmp6_init
                0x000000000001061c       0x12 contiki-wismote.a(uip-icmp6.o)
                0x000000000001061c                uip_icmp6_init
 .any.text.get32
                0x000000000001062e       0x3e contiki-wismote.a(rpl-icmp6.o)
 .any.text.set32
                0x000000000001066c       0x2a contiki-wismote.a(rpl-icmp6.o)
 .any.text.get16
                0x0000000000010696        0xe contiki-wismote.a(rpl-icmp6.o)
 .any.text.set16
                0x00000000000106a4       0x10 contiki-wismote.a(rpl-icmp6.o)
 .any.text.dao_ack_input
                0x00000000000106b4        0x6 contiki-wismote.a(rpl-icmp6.o)
 .any.text.dio_input
                0x00000000000106ba      0x2b0 contiki-wismote.a(rpl-icmp6.o)
 .any.text.dis_output
                0x000000000001096a       0x50 contiki-wismote.a(rpl-icmp6.o)
                0x000000000001096a                dis_output
 .any.text.dio_output
                0x00000000000109ba      0x242 contiki-wismote.a(rpl-icmp6.o)
                0x00000000000109ba                dio_output
 .any.text.dis_input
                0x0000000000010bfc       0x28 contiki-wismote.a(rpl-icmp6.o)
 .any.text.dao_output_target
                0x0000000000010c24       0xd2 contiki-wismote.a(rpl-icmp6.o)
                0x0000000000010c24                dao_output_target
 .any.text.dao_output
                0x0000000000010cf6       0x68 contiki-wismote.a(rpl-icmp6.o)
                0x0000000000010cf6                dao_output
 .any.text.dao_ack_output
                0x0000000000010d5e       0x38 contiki-wismote.a(rpl-icmp6.o)
                0x0000000000010d5e                dao_ack_output
 .any.text.dao_input
                0x0000000000010d96      0x290 contiki-wismote.a(rpl-icmp6.o)
 .any.text.rpl_icmp6_register_handlers
                0x0000000000011026       0x22 contiki-wismote.a(rpl-icmp6.o)
                0x0000000000011026                rpl_icmp6_register_handlers
 .any.text.new_dio_interval
                0x0000000000011048       0x9e contiki-wismote.a(rpl-timers.o)
 .any.text.set_dao_lifetime_timer
                0x00000000000110e6       0x66 contiki-wismote.a(rpl-timers.o)
 .any.text.handle_periodic_timer
                0x000000000001114c       0x2e contiki-wismote.a(rpl-timers.o)
 .any.text.schedule_dao
                0x000000000001117a       0x72 contiki-wismote.a(rpl-timers.o)
 .any.text.handle_dio_timer
                0x00000000000111ec       0x88 contiki-wismote.a(rpl-timers.o)
 .any.text.handle_dao_timer
                0x0000000000011274       0x64 contiki-wismote.a(rpl-timers.o)
 .any.text.rpl_reset_periodic_timer
                0x00000000000112d8       0x46 contiki-wismote.a(rpl-timers.o)
                0x00000000000112d8                rpl_reset_periodic_timer
 .any.text.rpl_reset_dio_timer
                0x000000000001131e       0x18 contiki-wismote.a(rpl-timers.o)
                0x000000000001131e                rpl_reset_dio_timer
 .any.text.rpl_schedule_dao
                0x0000000000011336        0xc contiki-wismote.a(rpl-timers.o)
                0x0000000000011336                rpl_schedule_dao
 .any.text.rpl_schedule_probing
                0x0000000000011342       0x5c contiki-wismote.a(rpl-timers.o)
                0x0000000000011342                rpl_schedule_probing
 .any.text.handle_probing_timer
                0x000000000001139e      0x112 contiki-wismote.a(rpl-timers.o)
 .any.text.mac_sequence_is_duplicate
                0x00000000000114b0       0x3c contiki-wismote.a(mac-sequence.o)
                0x00000000000114b0                mac_sequence_is_duplicate
 .any.text.mac_sequence_register_seqno
                0x00000000000114ec       0x6a contiki-wismote.a(mac-sequence.o)
                0x00000000000114ec                mac_sequence_register_seqno
 .any.text.malloc
                0x0000000000011556       0xbe /opt/compilers/mspgcc-4.7.3/bin/../lib/gcc/msp430/4.7.3/../../../../msp430/lib/mcpu-430x/mmpy-16/msr20/mc20/libc.a(malloc.o)
                0x0000000000011556                malloc
 .any.text.free
                0x0000000000011614        0x6 /opt/compilers/mspgcc-4.7.3/bin/../lib/gcc/msp430/4.7.3/../../../../msp430/lib/mcpu-430x/mmpy-16/msr20/mc20/libc.a(malloc.o)
                0x0000000000011614                free
 .any.text.atoi
                0x000000000001161a       0x82 /opt/compilers/mspgcc-4.7.3/bin/../lib/gcc/msp430/4.7.3/../../../../msp430/lib/mcpu-430x/mmpy-16/msr20/mc20/libc.a(atoi.o)
                0x000000000001161a                atoi
 .any.text.strtoul
                0x000000000001169c      0x178 /opt/compilers/mspgcc-4.7.3/bin/../lib/gcc/msp430/4.7.3/../../../../msp430/lib/mcpu-430x/mmpy-16/msr20/mc20/libc.a(strtoul.o)
                0x000000000001169c                strtoul
 .any.text.printf
                0x0000000000011814       0x10 /opt/compilers/mspgcc-4.7.3/bin/../lib/gcc/msp430/4.7.3/../../../../msp430/lib/mcpu-430x/mmpy-16/msr20/mc20/libc.a(printf.o)
                0x0000000000011814                printf
 .any.text.append
                0x0000000000011824       0x22 /opt/compilers/mspgcc-4.7.3/bin/../lib/gcc/msp430/4.7.3/../../../../msp430/lib/mcpu-430x/mmpy-16/msr20/mc20/libc.a(sprintf.o)
 .any.text.call_vuprintf
                0x0000000000011846       0x36 /opt/compilers/mspgcc-4.7.3/bin/../lib/gcc/msp430/4.7.3/../../../../msp430/lib/mcpu-430x/mmpy-16/msr20/mc20/libc.a(sprintf.o)
 .any.text.snprintf
                0x000000000001187c       0x1c /opt/compilers/mspgcc-4.7.3/bin/../lib/gcc/msp430/4.7.3/../../../../msp430/lib/mcpu-430x/mmpy-16/msr20/mc20/libc.a(sprintf.o)
                0x000000000001187c                snprintf
 .any.text.print_field
                0x0000000000011898      0x176 /opt/compilers/mspgcc-4.7.3/bin/../lib/gcc/msp430/4.7.3/../../../../msp430/lib/mcpu-430x/mmpy-16/msr20/mc20/libc.a(vuprintf.o)
 .any.text.vuprintf
                0x0000000000011a0e      0x742 /opt/compilers/mspgcc-4.7.3/bin/../lib/gcc/msp430/4.7.3/../../../../msp430/lib/mcpu-430x/mmpy-16/msr20/mc20/libc.a(vuprintf.o)
                0x0000000000011a0e                vuprintf
 .any.text.puts
                0x0000000000012150       0x2c /opt/compilers/mspgcc-4.7.3/bin/../lib/gcc/msp430/4.7.3/../../../../msp430/lib/mcpu-430x/mmpy-16/msr20/mc20/libc.a(puts.o)
                0x0000000000012150                puts
 .any.text.rand
                0x000000000001217c       0x26 /opt/compilers/mspgcc-4.7.3/bin/../lib/gcc/msp430/4.7.3/../../../../msp430/lib/mcpu-430x/mmpy-16/msr20/mc20/libc.a(rand.o)
                0x000000000001217c                rand
 .any.text.strchr
                0x00000000000121a2       0x16 /opt/compilers/mspgcc-4.7.3/bin/../lib/gcc/msp430/4.7.3/../../../../msp430/lib/mcpu-430x/mmpy-16/msr20/mc20/libc.a(strchr.o)
                0x00000000000121a2                strchr
 .any.text.memchr
                0x00000000000121b8       0x1e /opt/compilers/mspgcc-4.7.3/bin/../lib/gcc/msp430/4.7.3/../../../../msp430/lib/mcpu-430x/mmpy-16/msr20/mc20/libc.a(memchr.o)
                0x00000000000121b8                memchr
 .any.text.strncmp
                0x00000000000121d6       0x2a /opt/compilers/mspgcc-4.7.3/bin/../lib/gcc/msp430/4.7.3/../../../../msp430/lib/mcpu-430x/mmpy-16/msr20/mc20/libc.a(strncmp.o)
                0x00000000000121d6                strncmp
 .any.text.memcmp
                0x0000000000012200       0x2c /opt/compilers/mspgcc-4.7.3/bin/../lib/gcc/msp430/4.7.3/../../../../msp430/lib/mcpu-430x/mmpy-16/msr20/mc20/libc.a(memcmp.o)
                0x0000000000012200                memcmp
 .any.text.memcpy
                0x000000000001222c       0xe8 /opt/compilers/mspgcc-4.7.3/bin/../lib/gcc/msp430/4.7.3/../../../../msp430/lib/mcpu-430x/mmpy-16/msr20/mc20/libc.a(memcpy.o)
                0x000000000001222c                memcpy
 .any.text.memmove
                0x0000000000012314       0xe8 /opt/compilers/mspgcc-4.7.3/bin/../lib/gcc/msp430/4.7.3/../../../../msp430/lib/mcpu-430x/mmpy-16/msr20/mc20/libc.a(memmove.o)
                0x0000000000012314                memmove
 .any.text.memset
                0x00000000000123fc       0x5c /opt/compilers/mspgcc-4.7.3/bin/../lib/gcc/msp430/4.7.3/../../../../msp430/lib/mcpu-430x/mmpy-16/msr20/mc20/libc.a(memset.o)
                0x00000000000123fc                memset
 .any.text.strcat
                0x0000000000012458       0x1a /opt/compilers/mspgcc-4.7.3/bin/../lib/gcc/msp430/4.7.3/../../../../msp430/lib/mcpu-430x/mmpy-16/msr20/mc20/libc.a(strcat.o)
                0x0000000000012458                strcat

.far.rodata     0x0000000000012472        0x0
                0x0000000000012472                . = ALIGN (0x2)
 *(.far.rodata .far.rodata.*)
                0x0000000000012472                . = ALIGN (0x2)
                0x0000000000012472                _efartext = .

.far.data       0x0000000000000000        0x0 load address 0x0000000000012472
                0x0000000000000000                . = ALIGN (0x2)
                0x0000000000000000                __far_data_start = .
 *(.far.data .far.data.*)
                0x0000000000000000                . = ALIGN (0x2)
                0x0000000000000000                _efardata = .
                0x0000000000012472                __far_data_load_start = LOADADDR (.far.data)
                0x0000000000000000                __far_data_size = SIZEOF (.far.data)

.far.bss        0x0000000000000000        0x0 load address 0x0000000000012472
                0x0000000000000000                . = ALIGN (0x2)
                0x0000000000000000                __far_bss_start = .
 *(.far.bss .far.bss.*)
                0x0000000000000000                . = ALIGN (0x2)
                0x0000000000000000                __far_bss_end = .
                0x0000000000000000                __far_bss_size = SIZEOF (.far.bss)
                0x0000000000000000                . = ALIGN (0x2)
                0x0000000000000000                _far_end = .

.profiler
 *(.profiler)

.stab           0x0000000000000000    0x2da50
 *(.stab)
 .stab          0x0000000000000000     0x222c park.co
 .stab          0x000000000000222c      0x984 obj_wismote/parkevent.o
                                       0x18c0 (size before relaxing)
 .stab          0x0000000000002bb0      0x864 obj_wismote/dataLayer.o
                                        0xbdc (size before relaxing)
 .stab          0x0000000000003414      0x72c obj_wismote/data.o
                                        0xaec (size before relaxing)
 .stab          0x0000000000003b40      0x990 obj_wismote/helpers.o
                                        0xd2c (size before relaxing)
 .stab          0x00000000000044d0     0x1104 obj_wismote/contiki-wismote-main.o
                                       0x198c (size before relaxing)
 .stab          0x00000000000055d4     0x3120 contiki-wismote.a(er-coap.o)
                                       0x441c (size before relaxing)
 .stab          0x00000000000086f4      0xeac contiki-wismote.a(er-coap-engine.)
                                       0x2280 (size before relaxing)
 .stab          0x00000000000095a0      0xaa4 contiki-wismote.a(er-coap-transac)
                                       0x1ce0 (size before relaxing)
 .stab          0x000000000000a044      0xda4 contiki-wismote.a(er-coap-observe)
                                       0x20dc (size before relaxing)
 .stab          0x000000000000ade8      0x840 contiki-wismote.a(er-coap-res-wel)
                                       0x1c2c (size before relaxing)
 .stab          0x000000000000b628     0x1074 contiki-wismote.a(er-coap-observe)
                                       0x23b8 (size before relaxing)
 .stab          0x000000000000c69c      0x780 contiki-wismote.a(rest-engine.o)
                                        0xe04 (size before relaxing)
 .stab          0x000000000000ce1c      0x258 contiki-wismote.a(contiki-wismote)
                                        0x5c4 (size before relaxing)
 .stab          0x000000000000d074      0x474 contiki-wismote.a(button-sensor.o)
                                        0x7f8 (size before relaxing)
 .stab          0x000000000000d4e8      0x1e0 contiki-wismote.a(node-id.o)
                                        0x420 (size before relaxing)
 .stab          0x000000000000d6c8      0x69c contiki-wismote.a(sensors.o)
                                        0xbd0 (size before relaxing)
 .stab          0x000000000000dd64     0x246c contiki-wismote.a(cc2520.o)
                                       0x2b38 (size before relaxing)
 .stab          0x00000000000101d0      0x5c4 contiki-wismote.a(cc2520-arch.o)
                                       0x1728 (size before relaxing)
 .stab          0x0000000000010794      0x4e0 contiki-wismote.a(uart1.o)
                                        0xa14 (size before relaxing)
 .stab          0x0000000000010c74      0x27c contiki-wismote.a(uart1-putchar.o)
                                        0x7d4 (size before relaxing)
 .stab          0x0000000000010ef0      0x5f4 contiki-wismote.a(msp430.o)
                                        0x960 (size before relaxing)
 .stab          0x00000000000114e4      0x8b8 contiki-wismote.a(clock.o)
                                        0xc24 (size before relaxing)
 .stab          0x0000000000011d9c      0x5a0 contiki-wismote.a(leds.o)
                                        0x804 (size before relaxing)
 .stab          0x000000000001233c      0x360 contiki-wismote.a(leds-arch.o)
                                        0x6cc (size before relaxing)
 .stab          0x000000000001269c      0x3cc contiki-wismote.a(watchdog.o)
                                        0x738 (size before relaxing)
 .stab          0x0000000000012a68      0x3b4 contiki-wismote.a(rtimer-arch.o)
                                        0x720 (size before relaxing)
 .stab          0x0000000000012e1c      0x288 contiki-wismote.a(autostart.o)
                                        0x54c (size before relaxing)
 .stab          0x00000000000130a4      0x48c contiki-wismote.a(energest.o)
                                        0x72c (size before relaxing)
 .stab          0x0000000000013530      0x9fc contiki-wismote.a(etimer.o)
                                        0xce4 (size before relaxing)
 .stab          0x0000000000013f2c      0x78c contiki-wismote.a(ctimer.o)
                                        0xb10 (size before relaxing)
 .stab          0x00000000000146b8      0xb70 contiki-wismote.a(process.o)
                                       0x1020 (size before relaxing)
 .stab          0x0000000000015228      0x3cc contiki-wismote.a(rtimer.o)
                                        0x6cc (size before relaxing)
 .stab          0x00000000000155f4      0x348 contiki-wismote.a(timer.o)
                                        0x5a0 (size before relaxing)
 .stab          0x000000000001593c      0x7bc contiki-wismote.a(list.o)
                                        0x7c8 (size before relaxing)
 .stab          0x00000000000160f8      0x5c4 contiki-wismote.a(memb.o)
                                        0xb10 (size before relaxing)
 .stab          0x00000000000166bc      0x21c contiki-wismote.a(random.o)
                                        0x630 (size before relaxing)
 .stab          0x00000000000168d8     0x13ec contiki-wismote.a(uip-ds6.o)
                                       0x1f74 (size before relaxing)
 .stab          0x0000000000017cc4     0x1200 contiki-wismote.a(uip-ds6-route.o)
                                       0x1da0 (size before relaxing)
 .stab          0x0000000000018ec4     0x14dc contiki-wismote.a(uip6.o)
                                       0x20b8 (size before relaxing)
 .stab          0x000000000001a3a0      0xdd4 contiki-wismote.a(uip-ds6-nbr.o)
                                       0x1824 (size before relaxing)
 .stab          0x000000000001b174      0xcfc contiki-wismote.a(uip-nd6.o)
                                       0x18f0 (size before relaxing)
 .stab          0x000000000001be70     0x2184 contiki-wismote.a(sicslowpan.o)
                                       0x3108 (size before relaxing)
 .stab          0x000000000001dff4      0x450 contiki-wismote.a(uip-debug.o)
                                        0xbf4 (size before relaxing)
 .stab          0x000000000001e444      0x438 contiki-wismote.a(uip-udp-packet.)
                                        0xc0c (size before relaxing)
 .stab          0x000000000001e87c      0xd44 contiki-wismote.a(tcpip.o)
                                       0x1fa4 (size before relaxing)
 .stab          0x000000000001f5c0      0xa74 contiki-wismote.a(rpl-ext-header.)
                                       0x1824 (size before relaxing)
 .stab          0x0000000000020034      0xa5c contiki-wismote.a(rpl.o)
                                       0x17c4 (size before relaxing)
 .stab          0x0000000000020a90      0x894 contiki-wismote.a(rpl-mrhof.o)
                                       0x159c (size before relaxing)
 .stab          0x0000000000021324     0x2ebc contiki-wismote.a(rpl-dag.o)
                                       0x3bdc (size before relaxing)
 .stab          0x00000000000241e0      0xa80 contiki-wismote.a(queuebuf.o)
                                       0x1ba8 (size before relaxing)
 .stab          0x0000000000024c60      0xe58 contiki-wismote.a(nbr-table.o)
                                       0x1518 (size before relaxing)
 .stab          0x0000000000025ab8      0xd74 contiki-wismote.a(packetbuf.o)
                                       0x1eb4 (size before relaxing)
 .stab          0x000000000002682c      0x2ac contiki-wismote.a(linkaddr.o)
                                        0x6c0 (size before relaxing)
 .stab          0x0000000000026ad8      0x948 contiki-wismote.a(nullmac.o)
                                        0xdc8 (size before relaxing)
 .stab          0x0000000000027420      0xb4c contiki-wismote.a(nullrdc.o)
                                       0x12b4 (size before relaxing)
 .stab          0x0000000000027f6c      0x924 contiki-wismote.a(framer-802154.o)
                                        0xf60 (size before relaxing)
 .stab          0x0000000000028890      0x8f4 contiki-wismote.a(frame802154.o)
                                       0x10e0 (size before relaxing)
 .stab          0x0000000000029184      0x1f8 contiki-wismote.a(mac.o)
                                        0x504 (size before relaxing)
 .stab          0x000000000002937c      0x3fc contiki-wismote.a(framer.o)
                                        0xc6c (size before relaxing)
 .stab          0x0000000000029778      0x648 contiki-wismote.a(nullsec.o)
                                        0xd98 (size before relaxing)
 .stab          0x0000000000029dc0      0x27c contiki-wismote.a(spi.o)
                                        0x5e8 (size before relaxing)
 .stab          0x000000000002a03c      0x3b4 contiki-wismote.a(stimer.o)
                                        0x60c (size before relaxing)
 .stab          0x000000000002a3f0      0xcd8 contiki-wismote.a(uip-icmp6.o)
                                       0x1968 (size before relaxing)
 .stab          0x000000000002b0c8     0x1788 contiki-wismote.a(rpl-icmp6.o)
                                       0x25a4 (size before relaxing)
 .stab          0x000000000002c850      0xbac contiki-wismote.a(rpl-timers.o)
                                       0x18b4 (size before relaxing)
 .stab          0x000000000002d3fc      0x654 contiki-wismote.a(mac-sequence.o)
                                       0x1794 (size before relaxing)

.stabstr        0x0000000000000000    0x20e49
 *(.stabstr)
 .stabstr       0x0000000000000000    0x20e49 park.co

.stab.excl
 *(.stab.excl)

.stab.exclstr
 *(.stab.exclstr)

.stab.index
 *(.stab.index)

.stab.indexstr
 *(.stab.indexstr)

.comment        0x0000000000000000       0x30
 *(.comment)
 .comment       0x0000000000000000       0x30 park.co
                                         0x31 (size before relaxing)
 .comment       0x0000000000000000       0x31 obj_wismote/parkevent.o
 .comment       0x0000000000000000       0x31 obj_wismote/dataLayer.o
 .comment       0x0000000000000000       0x31 obj_wismote/data.o
 .comment       0x0000000000000000       0x31 obj_wismote/helpers.o
 .comment       0x0000000000000000       0x31 obj_wismote/contiki-wismote-main.o
 .comment       0x0000000000000000       0x31 contiki-wismote.a(er-coap.o)
 .comment       0x0000000000000000       0x31 contiki-wismote.a(er-coap-engine.)
 .comment       0x0000000000000000       0x31 contiki-wismote.a(er-coap-transac)
 .comment       0x0000000000000000       0x31 contiki-wismote.a(er-coap-observe)
 .comment       0x0000000000000000       0x31 contiki-wismote.a(er-coap-res-wel)
 .comment       0x0000000000000000       0x31 contiki-wismote.a(er-coap-observe)
 .comment       0x0000000000000000       0x31 contiki-wismote.a(rest-engine.o)
 .comment       0x0000000000000000       0x31 contiki-wismote.a(contiki-wismote)
 .comment       0x0000000000000000       0x31 contiki-wismote.a(button-sensor.o)
 .comment       0x0000000000000000       0x31 contiki-wismote.a(node-id.o)
 .comment       0x0000000000000000       0x31 contiki-wismote.a(sensors.o)
 .comment       0x0000000000000000       0x31 contiki-wismote.a(cc2520.o)
 .comment       0x0000000000000000       0x31 contiki-wismote.a(cc2520-arch.o)
 .comment       0x0000000000000000       0x31 contiki-wismote.a(uart1.o)
 .comment       0x0000000000000000       0x31 contiki-wismote.a(uart1-putchar.o)
 .comment       0x0000000000000000       0x31 contiki-wismote.a(msp430.o)
 .comment       0x0000000000000000       0x31 contiki-wismote.a(clock.o)
 .comment       0x0000000000000000       0x31 contiki-wismote.a(leds.o)
 .comment       0x0000000000000000       0x31 contiki-wismote.a(leds-arch.o)
 .comment       0x0000000000000000       0x31 contiki-wismote.a(watchdog.o)
 .comment       0x0000000000000000       0x31 contiki-wismote.a(rtimer-arch.o)
 .comment       0x0000000000000000       0x31 contiki-wismote.a(autostart.o)
 .comment       0x0000000000000000       0x31 contiki-wismote.a(energest.o)
 .comment       0x0000000000000000       0x31 contiki-wismote.a(etimer.o)
 .comment       0x0000000000000000       0x31 contiki-wismote.a(ctimer.o)
 .comment       0x0000000000000000       0x31 contiki-wismote.a(process.o)
 .comment       0x0000000000000000       0x31 contiki-wismote.a(rtimer.o)
 .comment       0x0000000000000000       0x31 contiki-wismote.a(timer.o)
 .comment       0x0000000000000000       0x31 contiki-wismote.a(list.o)
 .comment       0x0000000000000000       0x31 contiki-wismote.a(memb.o)
 .comment       0x0000000000000000       0x31 contiki-wismote.a(random.o)
 .comment       0x0000000000000000       0x31 contiki-wismote.a(uip-ds6.o)
 .comment       0x0000000000000000       0x31 contiki-wismote.a(uip-ds6-route.o)
 .comment       0x0000000000000000       0x31 contiki-wismote.a(uip6.o)
 .comment       0x0000000000000000       0x31 contiki-wismote.a(uip-ds6-nbr.o)
 .comment       0x0000000000000000       0x31 contiki-wismote.a(uip-nd6.o)
 .comment       0x0000000000000000       0x31 contiki-wismote.a(sicslowpan.o)
 .comment       0x0000000000000000       0x31 contiki-wismote.a(uip-debug.o)
 .comment       0x0000000000000000       0x31 contiki-wismote.a(uip-udp-packet.)
 .comment       0x0000000000000000       0x31 contiki-wismote.a(tcpip.o)
 .comment       0x0000000000000000       0x31 contiki-wismote.a(rpl-ext-header.)
 .comment       0x0000000000000000       0x31 contiki-wismote.a(rpl.o)
 .comment       0x0000000000000000       0x31 contiki-wismote.a(rpl-mrhof.o)
 .comment       0x0000000000000000       0x31 contiki-wismote.a(rpl-dag.o)
 .comment       0x0000000000000000       0x31 contiki-wismote.a(queuebuf.o)
 .comment       0x0000000000000000       0x31 contiki-wismote.a(nbr-table.o)
 .comment       0x0000000000000000       0x31 contiki-wismote.a(packetbuf.o)
 .comment       0x0000000000000000       0x31 contiki-wismote.a(linkaddr.o)
 .comment       0x0000000000000000       0x31 contiki-wismote.a(nullmac.o)
 .comment       0x0000000000000000       0x31 contiki-wismote.a(nullrdc.o)
 .comment       0x0000000000000000       0x31 contiki-wismote.a(framer-802154.o)
 .comment       0x0000000000000000       0x31 contiki-wismote.a(frame802154.o)
 .comment       0x0000000000000000       0x31 contiki-wismote.a(mac.o)
 .comment       0x0000000000000000       0x31 contiki-wismote.a(framer.o)
 .comment       0x0000000000000000       0x31 contiki-wismote.a(nullsec.o)
 .comment       0x0000000000000000       0x31 contiki-wismote.a(spi.o)
 .comment       0x0000000000000000       0x31 contiki-wismote.a(stimer.o)
 .comment       0x0000000000000000       0x31 contiki-wismote.a(uip-icmp6.o)
 .comment       0x0000000000000000       0x31 contiki-wismote.a(rpl-icmp6.o)
 .comment       0x0000000000000000       0x31 contiki-wismote.a(rpl-timers.o)
 .comment       0x0000000000000000       0x31 contiki-wismote.a(mac-sequence.o)
 .comment       0x0000000000000000       0x31 /opt/compilers/mspgcc-4.7.3/bin/../lib/gcc/msp430/4.7.3/../../../../msp430/lib/mcpu-430x/mmpy-16/msr20/mc20/libc.a(malloc.o)
 .comment       0x0000000000000000       0x31 /opt/compilers/mspgcc-4.7.3/bin/../lib/gcc/msp430/4.7.3/../../../../msp430/lib/mcpu-430x/mmpy-16/msr20/mc20/libc.a(atoi.o)
 .comment       0x0000000000000000       0x31 /opt/compilers/mspgcc-4.7.3/bin/../lib/gcc/msp430/4.7.3/../../../../msp430/lib/mcpu-430x/mmpy-16/msr20/mc20/libc.a(strtoul.o)
 .comment       0x0000000000000000       0x31 /opt/compilers/mspgcc-4.7.3/bin/../lib/gcc/msp430/4.7.3/../../../../msp430/lib/mcpu-430x/mmpy-16/msr20/mc20/libc.a(printf.o)
 .comment       0x0000000000000000       0x31 /opt/compilers/mspgcc-4.7.3/bin/../lib/gcc/msp430/4.7.3/../../../../msp430/lib/mcpu-430x/mmpy-16/msr20/mc20/libc.a(sprintf.o)
 .comment       0x0000000000000000       0x31 /opt/compilers/mspgcc-4.7.3/bin/../lib/gcc/msp430/4.7.3/../../../../msp430/lib/mcpu-430x/mmpy-16/msr20/mc20/libc.a(vuprintf.o)
 .comment       0x0000000000000000       0x31 /opt/compilers/mspgcc-4.7.3/bin/../lib/gcc/msp430/4.7.3/../../../../msp430/lib/mcpu-430x/mmpy-16/msr20/mc20/libc.a(puts.o)
 .comment       0x0000000000000000       0x31 /opt/compilers/mspgcc-4.7.3/bin/../lib/gcc/msp430/4.7.3/../../../../msp430/lib/mcpu-430x/mmpy-16/msr20/mc20/libc.a(rand.o)
 .comment       0x0000000000000000       0x31 /opt/compilers/mspgcc-4.7.3/bin/../lib/gcc/msp430/4.7.3/../../../../msp430/lib/mcpu-430x/mmpy-16/msr20/mc20/libc.a(strchr.o)
 .comment       0x0000000000000000       0x31 /opt/compilers/mspgcc-4.7.3/bin/../lib/gcc/msp430/4.7.3/../../../../msp430/lib/mcpu-430x/mmpy-16/msr20/mc20/libc.a(memchr.o)
 .comment       0x0000000000000000       0x31 /opt/compilers/mspgcc-4.7.3/bin/../lib/gcc/msp430/4.7.3/../../../../msp430/lib/mcpu-430x/mmpy-16/msr20/mc20/libc.a(strncmp.o)
 .comment       0x0000000000000000       0x31 /opt/compilers/mspgcc-4.7.3/bin/../lib/gcc/msp430/4.7.3/../../../../msp430/lib/mcpu-430x/mmpy-16/msr20/mc20/libc.a(memcmp.o)
 .comment       0x0000000000000000       0x31 /opt/compilers/mspgcc-4.7.3/bin/../lib/gcc/msp430/4.7.3/../../../../msp430/lib/mcpu-430x/mmpy-16/msr20/mc20/libc.a(memcpy.o)
 .comment       0x0000000000000000       0x31 /opt/compilers/mspgcc-4.7.3/bin/../lib/gcc/msp430/4.7.3/../../../../msp430/lib/mcpu-430x/mmpy-16/msr20/mc20/libc.a(memmove.o)
 .comment       0x0000000000000000       0x31 /opt/compilers/mspgcc-4.7.3/bin/../lib/gcc/msp430/4.7.3/../../../../msp430/lib/mcpu-430x/mmpy-16/msr20/mc20/libc.a(memset.o)
 .comment       0x0000000000000000       0x31 /opt/compilers/mspgcc-4.7.3/bin/../lib/gcc/msp430/4.7.3/../../../../msp430/lib/mcpu-430x/mmpy-16/msr20/mc20/libc.a(strcat.o)
 .comment       0x0000000000000000       0x31 /opt/compilers/mspgcc-4.7.3/bin/../lib/gcc/msp430/4.7.3/../../../../msp430/lib/mcpu-430x/mmpy-16/msr20/mc20/libc.a(errno.o)

.debug
 *(.debug)

.line
 *(.line)

.debug_srcinfo
 *(.debug_srcinfo)

.debug_sfnames
 *(.debug_sfnames)

.debug_aranges  0x0000000000000000      0x408
 *(.debug_aranges)
 .debug_aranges
                0x0000000000000000       0x20 /opt/compilers/mspgcc-4.7.3/bin/../lib/gcc/msp430/4.7.3/mcpu-430x/mmpy-16/msr20/mc20/crt0ivtbl64.o
 .debug_aranges
                0x0000000000000020       0x20 /opt/compilers/mspgcc-4.7.3/bin/../lib/gcc/msp430/4.7.3/mcpu-430x/mmpy-16/msr20/mc20/libgcc.a(_udivmod16.o)
 .debug_aranges
                0x0000000000000040       0x20 /opt/compilers/mspgcc-4.7.3/bin/../lib/gcc/msp430/4.7.3/mcpu-430x/mmpy-16/msr20/mc20/libgcc.a(_divmod16.o)
 .debug_aranges
                0x0000000000000060       0x20 /opt/compilers/mspgcc-4.7.3/bin/../lib/gcc/msp430/4.7.3/mcpu-430x/mmpy-16/msr20/mc20/libgcc.a(_udivmod32.o)
 .debug_aranges
                0x0000000000000080       0x20 /opt/compilers/mspgcc-4.7.3/bin/../lib/gcc/msp430/4.7.3/mcpu-430x/mmpy-16/msr20/mc20/libgcc.a(_divmod32.o)
 .debug_aranges
                0x00000000000000a0       0x28 /opt/compilers/mspgcc-4.7.3/bin/../lib/gcc/msp430/4.7.3/../../../../msp430/lib/mcpu-430x/mmpy-16/msr20/mc20/libc.a(malloc.o)
 .debug_aranges
                0x00000000000000c8       0x20 /opt/compilers/mspgcc-4.7.3/bin/../lib/gcc/msp430/4.7.3/../../../../msp430/lib/mcpu-430x/mmpy-16/msr20/mc20/libc.a(atoi.o)
 .debug_aranges
                0x00000000000000e8       0x20 /opt/compilers/mspgcc-4.7.3/bin/../lib/gcc/msp430/4.7.3/../../../../msp430/lib/mcpu-430x/mmpy-16/msr20/mc20/libc.a(strtoul.o)
 .debug_aranges
                0x0000000000000108       0x28 /opt/compilers/mspgcc-4.7.3/bin/../lib/gcc/msp430/4.7.3/../../../../msp430/lib/mcpu-430x/mmpy-16/msr20/mc20/libc.a(printf.o)
 .debug_aranges
                0x0000000000000130       0x48 /opt/compilers/mspgcc-4.7.3/bin/../lib/gcc/msp430/4.7.3/../../../../msp430/lib/mcpu-430x/mmpy-16/msr20/mc20/libc.a(sprintf.o)
 .debug_aranges
                0x0000000000000178       0x28 /opt/compilers/mspgcc-4.7.3/bin/../lib/gcc/msp430/4.7.3/../../../../msp430/lib/mcpu-430x/mmpy-16/msr20/mc20/libc.a(vuprintf.o)
 .debug_aranges
                0x00000000000001a0       0x20 /opt/compilers/mspgcc-4.7.3/bin/../lib/gcc/msp430/4.7.3/../../../../msp430/lib/mcpu-430x/mmpy-16/msr20/mc20/libc.a(puts.o)
 .debug_aranges
                0x00000000000001c0       0x30 /opt/compilers/mspgcc-4.7.3/bin/../lib/gcc/msp430/4.7.3/../../../../msp430/lib/mcpu-430x/mmpy-16/msr20/mc20/libc.a(rand.o)
 .debug_aranges
                0x00000000000001f0       0x20 /opt/compilers/mspgcc-4.7.3/bin/../lib/gcc/msp430/4.7.3/../../../../msp430/lib/mcpu-430x/mmpy-16/msr20/mc20/libc.a(strchr.o)
 .debug_aranges
                0x0000000000000210       0x20 /opt/compilers/mspgcc-4.7.3/bin/../lib/gcc/msp430/4.7.3/../../../../msp430/lib/mcpu-430x/mmpy-16/msr20/mc20/libc.a(memchr.o)
 .debug_aranges
                0x0000000000000230       0x20 /opt/compilers/mspgcc-4.7.3/bin/../lib/gcc/msp430/4.7.3/../../../../msp430/lib/mcpu-430x/mmpy-16/msr20/mc20/libc.a(strncmp.o)
 .debug_aranges
                0x0000000000000250       0x20 /opt/compilers/mspgcc-4.7.3/bin/../lib/gcc/msp430/4.7.3/../../../../msp430/lib/mcpu-430x/mmpy-16/msr20/mc20/libc.a(memcmp.o)
 .debug_aranges
                0x0000000000000270       0x20 /opt/compilers/mspgcc-4.7.3/bin/../lib/gcc/msp430/4.7.3/../../../../msp430/lib/mcpu-430x/mmpy-16/msr20/mc20/libc.a(memcpy.o)
 .debug_aranges
                0x0000000000000290       0x20 /opt/compilers/mspgcc-4.7.3/bin/../lib/gcc/msp430/4.7.3/../../../../msp430/lib/mcpu-430x/mmpy-16/msr20/mc20/libc.a(memmove.o)
 .debug_aranges
                0x00000000000002b0       0x20 /opt/compilers/mspgcc-4.7.3/bin/../lib/gcc/msp430/4.7.3/../../../../msp430/lib/mcpu-430x/mmpy-16/msr20/mc20/libc.a(memset.o)
 .debug_aranges
                0x00000000000002d0       0x20 /opt/compilers/mspgcc-4.7.3/bin/../lib/gcc/msp430/4.7.3/../../../../msp430/lib/mcpu-430x/mmpy-16/msr20/mc20/libc.a(strcat.o)
 .debug_aranges
                0x00000000000002f0       0x18 /opt/compilers/mspgcc-4.7.3/bin/../lib/gcc/msp430/4.7.3/../../../../msp430/lib/mcpu-430x/mmpy-16/msr20/mc20/libc.a(errno.o)
 .debug_aranges
                0x0000000000000308       0x20 /opt/compilers/mspgcc-4.7.3/bin/../lib/gcc/msp430/4.7.3/mcpu-430x/mmpy-16/msr20/mc20/libgcc.a(_mulsi3.o)
 .debug_aranges
                0x0000000000000328       0x20 /opt/compilers/mspgcc-4.7.3/bin/../lib/gcc/msp430/4.7.3/mcpu-430x/mmpy-16/msr20/mc20/libgcc.a(_udivmod64.o)
 .debug_aranges
                0x0000000000000348       0x20 /opt/compilers/mspgcc-4.7.3/bin/../lib/gcc/msp430/4.7.3/mcpu-430x/mmpy-16/msr20/mc20/libcrt0.a(__watchdog_support.o)
 .debug_aranges
                0x0000000000000368       0x20 /opt/compilers/mspgcc-4.7.3/bin/../lib/gcc/msp430/4.7.3/mcpu-430x/mmpy-16/msr20/mc20/libcrt0.a(__init_stack.o)
 .debug_aranges
                0x0000000000000388       0x20 /opt/compilers/mspgcc-4.7.3/bin/../lib/gcc/msp430/4.7.3/mcpu-430x/mmpy-16/msr20/mc20/libcrt0.a(_copy_data.o)
 .debug_aranges
                0x00000000000003a8       0x20 /opt/compilers/mspgcc-4.7.3/bin/../lib/gcc/msp430/4.7.3/mcpu-430x/mmpy-16/msr20/mc20/libcrt0.a(_clear_bss.o)
 .debug_aranges
                0x00000000000003c8       0x20 /opt/compilers/mspgcc-4.7.3/bin/../lib/gcc/msp430/4.7.3/mcpu-430x/mmpy-16/msr20/mc20/libcrt0.a(_endless_loop__.o)
 .debug_aranges
                0x00000000000003e8       0x20 /opt/compilers/mspgcc-4.7.3/bin/../lib/gcc/msp430/4.7.3/mcpu-430x/mmpy-16/msr20/mc20/libcrt0.a(_unexpected_.o)

.debug_pubnames
 *(.debug_pubnames)

.debug_info     0x0000000000000000     0x23a7
 *(.debug_info)
 .debug_info    0x0000000000000000       0xbf /opt/compilers/mspgcc-4.7.3/bin/../lib/gcc/msp430/4.7.3/mcpu-430x/mmpy-16/msr20/mc20/crt0ivtbl64.o
 .debug_info    0x00000000000000bf       0xbc /opt/compilers/mspgcc-4.7.3/bin/../lib/gcc/msp430/4.7.3/mcpu-430x/mmpy-16/msr20/mc20/libgcc.a(_udivmod16.o)
 .debug_info    0x000000000000017b       0xbc /opt/compilers/mspgcc-4.7.3/bin/../lib/gcc/msp430/4.7.3/mcpu-430x/mmpy-16/msr20/mc20/libgcc.a(_divmod16.o)
 .debug_info    0x0000000000000237       0xbc /opt/compilers/mspgcc-4.7.3/bin/../lib/gcc/msp430/4.7.3/mcpu-430x/mmpy-16/msr20/mc20/libgcc.a(_udivmod32.o)
 .debug_info    0x00000000000002f3       0xbc /opt/compilers/mspgcc-4.7.3/bin/../lib/gcc/msp430/4.7.3/mcpu-430x/mmpy-16/msr20/mc20/libgcc.a(_divmod32.o)
 .debug_info    0x00000000000003af      0x185 /opt/compilers/mspgcc-4.7.3/bin/../lib/gcc/msp430/4.7.3/../../../../msp430/lib/mcpu-430x/mmpy-16/msr20/mc20/libc.a(malloc.o)
 .debug_info    0x0000000000000534       0xce /opt/compilers/mspgcc-4.7.3/bin/../lib/gcc/msp430/4.7.3/../../../../msp430/lib/mcpu-430x/mmpy-16/msr20/mc20/libc.a(atoi.o)
 .debug_info    0x0000000000000602      0x1dd /opt/compilers/mspgcc-4.7.3/bin/../lib/gcc/msp430/4.7.3/../../../../msp430/lib/mcpu-430x/mmpy-16/msr20/mc20/libc.a(strtoul.o)
 .debug_info    0x00000000000007df      0x18d /opt/compilers/mspgcc-4.7.3/bin/../lib/gcc/msp430/4.7.3/../../../../msp430/lib/mcpu-430x/mmpy-16/msr20/mc20/libc.a(printf.o)
 .debug_info    0x000000000000096c      0x352 /opt/compilers/mspgcc-4.7.3/bin/../lib/gcc/msp430/4.7.3/../../../../msp430/lib/mcpu-430x/mmpy-16/msr20/mc20/libc.a(sprintf.o)
 .debug_info    0x0000000000000cbe      0x673 /opt/compilers/mspgcc-4.7.3/bin/../lib/gcc/msp430/4.7.3/../../../../msp430/lib/mcpu-430x/mmpy-16/msr20/mc20/libc.a(vuprintf.o)
 .debug_info    0x0000000000001331       0xe1 /opt/compilers/mspgcc-4.7.3/bin/../lib/gcc/msp430/4.7.3/../../../../msp430/lib/mcpu-430x/mmpy-16/msr20/mc20/libc.a(puts.o)
 .debug_info    0x0000000000001412      0x172 /opt/compilers/mspgcc-4.7.3/bin/../lib/gcc/msp430/4.7.3/../../../../msp430/lib/mcpu-430x/mmpy-16/msr20/mc20/libc.a(rand.o)
 .debug_info    0x0000000000001584       0xc2 /opt/compilers/mspgcc-4.7.3/bin/../lib/gcc/msp430/4.7.3/../../../../msp430/lib/mcpu-430x/mmpy-16/msr20/mc20/libc.a(strchr.o)
 .debug_info    0x0000000000001646       0xf8 /opt/compilers/mspgcc-4.7.3/bin/../lib/gcc/msp430/4.7.3/../../../../msp430/lib/mcpu-430x/mmpy-16/msr20/mc20/libc.a(memchr.o)
 .debug_info    0x000000000000173e       0xd8 /opt/compilers/mspgcc-4.7.3/bin/../lib/gcc/msp430/4.7.3/../../../../msp430/lib/mcpu-430x/mmpy-16/msr20/mc20/libc.a(strncmp.o)
 .debug_info    0x0000000000001816       0xff /opt/compilers/mspgcc-4.7.3/bin/../lib/gcc/msp430/4.7.3/../../../../msp430/lib/mcpu-430x/mmpy-16/msr20/mc20/libc.a(memcmp.o)
 .debug_info    0x0000000000001915      0x144 /opt/compilers/mspgcc-4.7.3/bin/../lib/gcc/msp430/4.7.3/../../../../msp430/lib/mcpu-430x/mmpy-16/msr20/mc20/libc.a(memcpy.o)
 .debug_info    0x0000000000001a59      0x144 /opt/compilers/mspgcc-4.7.3/bin/../lib/gcc/msp430/4.7.3/../../../../msp430/lib/mcpu-430x/mmpy-16/msr20/mc20/libc.a(memmove.o)
 .debug_info    0x0000000000001b9d      0x12d /opt/compilers/mspgcc-4.7.3/bin/../lib/gcc/msp430/4.7.3/../../../../msp430/lib/mcpu-430x/mmpy-16/msr20/mc20/libc.a(memset.o)
 .debug_info    0x0000000000001cca       0xd2 /opt/compilers/mspgcc-4.7.3/bin/../lib/gcc/msp430/4.7.3/../../../../msp430/lib/mcpu-430x/mmpy-16/msr20/mc20/libc.a(strcat.o)
 .debug_info    0x0000000000001d9c       0x37 /opt/compilers/mspgcc-4.7.3/bin/../lib/gcc/msp430/4.7.3/../../../../msp430/lib/mcpu-430x/mmpy-16/msr20/mc20/libc.a(errno.o)
 .debug_info    0x0000000000001dd3       0xbc /opt/compilers/mspgcc-4.7.3/bin/../lib/gcc/msp430/4.7.3/mcpu-430x/mmpy-16/msr20/mc20/libgcc.a(_mulsi3.o)
 .debug_info    0x0000000000001e8f       0xbc /opt/compilers/mspgcc-4.7.3/bin/../lib/gcc/msp430/4.7.3/mcpu-430x/mmpy-16/msr20/mc20/libgcc.a(_udivmod64.o)
 .debug_info    0x0000000000001f4b       0xba /opt/compilers/mspgcc-4.7.3/bin/../lib/gcc/msp430/4.7.3/mcpu-430x/mmpy-16/msr20/mc20/libcrt0.a(__watchdog_support.o)
 .debug_info    0x0000000000002005       0xba /opt/compilers/mspgcc-4.7.3/bin/../lib/gcc/msp430/4.7.3/mcpu-430x/mmpy-16/msr20/mc20/libcrt0.a(__init_stack.o)
 .debug_info    0x00000000000020bf       0xba /opt/compilers/mspgcc-4.7.3/bin/../lib/gcc/msp430/4.7.3/mcpu-430x/mmpy-16/msr20/mc20/libcrt0.a(_copy_data.o)
 .debug_info    0x0000000000002179       0xba /opt/compilers/mspgcc-4.7.3/bin/../lib/gcc/msp430/4.7.3/mcpu-430x/mmpy-16/msr20/mc20/libcrt0.a(_clear_bss.o)
 .debug_info    0x0000000000002233       0xba /opt/compilers/mspgcc-4.7.3/bin/../lib/gcc/msp430/4.7.3/mcpu-430x/mmpy-16/msr20/mc20/libcrt0.a(_endless_loop__.o)
 .debug_info    0x00000000000022ed       0xba /opt/compilers/mspgcc-4.7.3/bin/../lib/gcc/msp430/4.7.3/mcpu-430x/mmpy-16/msr20/mc20/libcrt0.a(_unexpected_.o)
 *(.gnu.linkonce.wi.*)

.debug_abbrev   0x0000000000000000      0xe67
 *(.debug_abbrev)
 .debug_abbrev  0x0000000000000000       0x14 /opt/compilers/mspgcc-4.7.3/bin/../lib/gcc/msp430/4.7.3/mcpu-430x/mmpy-16/msr20/mc20/crt0ivtbl64.o
 .debug_abbrev  0x0000000000000014       0x14 /opt/compilers/mspgcc-4.7.3/bin/../lib/gcc/msp430/4.7.3/mcpu-430x/mmpy-16/msr20/mc20/libgcc.a(_udivmod16.o)
 .debug_abbrev  0x0000000000000028       0x14 /opt/compilers/mspgcc-4.7.3/bin/../lib/gcc/msp430/4.7.3/mcpu-430x/mmpy-16/msr20/mc20/libgcc.a(_divmod16.o)
 .debug_abbrev  0x000000000000003c       0x14 /opt/compilers/mspgcc-4.7.3/bin/../lib/gcc/msp430/4.7.3/mcpu-430x/mmpy-16/msr20/mc20/libgcc.a(_udivmod32.o)
 .debug_abbrev  0x0000000000000050       0x14 /opt/compilers/mspgcc-4.7.3/bin/../lib/gcc/msp430/4.7.3/mcpu-430x/mmpy-16/msr20/mc20/libgcc.a(_divmod32.o)
 .debug_abbrev  0x0000000000000064      0x10c /opt/compilers/mspgcc-4.7.3/bin/../lib/gcc/msp430/4.7.3/../../../../msp430/lib/mcpu-430x/mmpy-16/msr20/mc20/libc.a(malloc.o)
 .debug_abbrev  0x0000000000000170       0x83 /opt/compilers/mspgcc-4.7.3/bin/../lib/gcc/msp430/4.7.3/../../../../msp430/lib/mcpu-430x/mmpy-16/msr20/mc20/libc.a(atoi.o)
 .debug_abbrev  0x00000000000001f3       0xe1 /opt/compilers/mspgcc-4.7.3/bin/../lib/gcc/msp430/4.7.3/../../../../msp430/lib/mcpu-430x/mmpy-16/msr20/mc20/libc.a(strtoul.o)
 .debug_abbrev  0x00000000000002d4       0xfa /opt/compilers/mspgcc-4.7.3/bin/../lib/gcc/msp430/4.7.3/../../../../msp430/lib/mcpu-430x/mmpy-16/msr20/mc20/libc.a(printf.o)
 .debug_abbrev  0x00000000000003ce      0x14c /opt/compilers/mspgcc-4.7.3/bin/../lib/gcc/msp430/4.7.3/../../../../msp430/lib/mcpu-430x/mmpy-16/msr20/mc20/libc.a(sprintf.o)
 .debug_abbrev  0x000000000000051a      0x23e /opt/compilers/mspgcc-4.7.3/bin/../lib/gcc/msp430/4.7.3/../../../../msp430/lib/mcpu-430x/mmpy-16/msr20/mc20/libc.a(vuprintf.o)
 .debug_abbrev  0x0000000000000758       0xa3 /opt/compilers/mspgcc-4.7.3/bin/../lib/gcc/msp430/4.7.3/../../../../msp430/lib/mcpu-430x/mmpy-16/msr20/mc20/libc.a(puts.o)
 .debug_abbrev  0x00000000000007fb       0xfb /opt/compilers/mspgcc-4.7.3/bin/../lib/gcc/msp430/4.7.3/../../../../msp430/lib/mcpu-430x/mmpy-16/msr20/mc20/libc.a(rand.o)
 .debug_abbrev  0x00000000000008f6       0x74 /opt/compilers/mspgcc-4.7.3/bin/../lib/gcc/msp430/4.7.3/../../../../msp430/lib/mcpu-430x/mmpy-16/msr20/mc20/libc.a(strchr.o)
 .debug_abbrev  0x000000000000096a       0xa7 /opt/compilers/mspgcc-4.7.3/bin/../lib/gcc/msp430/4.7.3/../../../../msp430/lib/mcpu-430x/mmpy-16/msr20/mc20/libc.a(memchr.o)
 .debug_abbrev  0x0000000000000a11       0x72 /opt/compilers/mspgcc-4.7.3/bin/../lib/gcc/msp430/4.7.3/../../../../msp430/lib/mcpu-430x/mmpy-16/msr20/mc20/libc.a(strncmp.o)
 .debug_abbrev  0x0000000000000a83       0x9e /opt/compilers/mspgcc-4.7.3/bin/../lib/gcc/msp430/4.7.3/../../../../msp430/lib/mcpu-430x/mmpy-16/msr20/mc20/libc.a(memcmp.o)
 .debug_abbrev  0x0000000000000b21       0xab /opt/compilers/mspgcc-4.7.3/bin/../lib/gcc/msp430/4.7.3/../../../../msp430/lib/mcpu-430x/mmpy-16/msr20/mc20/libc.a(memcpy.o)
 .debug_abbrev  0x0000000000000bcc       0xab /opt/compilers/mspgcc-4.7.3/bin/../lib/gcc/msp430/4.7.3/../../../../msp430/lib/mcpu-430x/mmpy-16/msr20/mc20/libc.a(memmove.o)
 .debug_abbrev  0x0000000000000c77       0xa1 /opt/compilers/mspgcc-4.7.3/bin/../lib/gcc/msp430/4.7.3/../../../../msp430/lib/mcpu-430x/mmpy-16/msr20/mc20/libc.a(memset.o)
 .debug_abbrev  0x0000000000000d18       0x83 /opt/compilers/mspgcc-4.7.3/bin/../lib/gcc/msp430/4.7.3/../../../../msp430/lib/mcpu-430x/mmpy-16/msr20/mc20/libc.a(strcat.o)
 .debug_abbrev  0x0000000000000d9b       0x2c /opt/compilers/mspgcc-4.7.3/bin/../lib/gcc/msp430/4.7.3/../../../../msp430/lib/mcpu-430x/mmpy-16/msr20/mc20/libc.a(errno.o)
 .debug_abbrev  0x0000000000000dc7       0x14 /opt/compilers/mspgcc-4.7.3/bin/../lib/gcc/msp430/4.7.3/mcpu-430x/mmpy-16/msr20/mc20/libgcc.a(_mulsi3.o)
 .debug_abbrev  0x0000000000000ddb       0x14 /opt/compilers/mspgcc-4.7.3/bin/../lib/gcc/msp430/4.7.3/mcpu-430x/mmpy-16/msr20/mc20/libgcc.a(_udivmod64.o)
 .debug_abbrev  0x0000000000000def       0x14 /opt/compilers/mspgcc-4.7.3/bin/../lib/gcc/msp430/4.7.3/mcpu-430x/mmpy-16/msr20/mc20/libcrt0.a(__watchdog_support.o)
 .debug_abbrev  0x0000000000000e03       0x14 /opt/compilers/mspgcc-4.7.3/bin/../lib/gcc/msp430/4.7.3/mcpu-430x/mmpy-16/msr20/mc20/libcrt0.a(__init_stack.o)
 .debug_abbrev  0x0000000000000e17       0x14 /opt/compilers/mspgcc-4.7.3/bin/../lib/gcc/msp430/4.7.3/mcpu-430x/mmpy-16/msr20/mc20/libcrt0.a(_copy_data.o)
 .debug_abbrev  0x0000000000000e2b       0x14 /opt/compilers/mspgcc-4.7.3/bin/../lib/gcc/msp430/4.7.3/mcpu-430x/mmpy-16/msr20/mc20/libcrt0.a(_clear_bss.o)
 .debug_abbrev  0x0000000000000e3f       0x14 /opt/compilers/mspgcc-4.7.3/bin/../lib/gcc/msp430/4.7.3/mcpu-430x/mmpy-16/msr20/mc20/libcrt0.a(_endless_loop__.o)
 .debug_abbrev  0x0000000000000e53       0x14 /opt/compilers/mspgcc-4.7.3/bin/../lib/gcc/msp430/4.7.3/mcpu-430x/mmpy-16/msr20/mc20/libcrt0.a(_unexpected_.o)

.debug_line     0x0000000000000000     0x1442
 *(.debug_line)
 .debug_line    0x0000000000000000       0x6f /opt/compilers/mspgcc-4.7.3/bin/../lib/gcc/msp430/4.7.3/mcpu-430x/mmpy-16/msr20/mc20/crt0ivtbl64.o
 .debug_line    0x000000000000006f       0x7b /opt/compilers/mspgcc-4.7.3/bin/../lib/gcc/msp430/4.7.3/mcpu-430x/mmpy-16/msr20/mc20/libgcc.a(_udivmod16.o)
 .debug_line    0x00000000000000ea       0x86 /opt/compilers/mspgcc-4.7.3/bin/../lib/gcc/msp430/4.7.3/mcpu-430x/mmpy-16/msr20/mc20/libgcc.a(_divmod16.o)
 .debug_line    0x0000000000000170       0x86 /opt/compilers/mspgcc-4.7.3/bin/../lib/gcc/msp430/4.7.3/mcpu-430x/mmpy-16/msr20/mc20/libgcc.a(_udivmod32.o)
 .debug_line    0x00000000000001f6       0x8f /opt/compilers/mspgcc-4.7.3/bin/../lib/gcc/msp430/4.7.3/mcpu-430x/mmpy-16/msr20/mc20/libgcc.a(_divmod32.o)
 .debug_line    0x0000000000000285       0xf4 /opt/compilers/mspgcc-4.7.3/bin/../lib/gcc/msp430/4.7.3/../../../../msp430/lib/mcpu-430x/mmpy-16/msr20/mc20/libc.a(malloc.o)
 .debug_line    0x0000000000000379       0x70 /opt/compilers/mspgcc-4.7.3/bin/../lib/gcc/msp430/4.7.3/../../../../msp430/lib/mcpu-430x/mmpy-16/msr20/mc20/libc.a(atoi.o)
 .debug_line    0x00000000000003e9       0xe3 /opt/compilers/mspgcc-4.7.3/bin/../lib/gcc/msp430/4.7.3/../../../../msp430/lib/mcpu-430x/mmpy-16/msr20/mc20/libc.a(strtoul.o)
 .debug_line    0x00000000000004cc       0xaf /opt/compilers/mspgcc-4.7.3/bin/../lib/gcc/msp430/4.7.3/../../../../msp430/lib/mcpu-430x/mmpy-16/msr20/mc20/libc.a(printf.o)
 .debug_line    0x000000000000057b      0x115 /opt/compilers/mspgcc-4.7.3/bin/../lib/gcc/msp430/4.7.3/../../../../msp430/lib/mcpu-430x/mmpy-16/msr20/mc20/libc.a(sprintf.o)
 .debug_line    0x0000000000000690      0x35f /opt/compilers/mspgcc-4.7.3/bin/../lib/gcc/msp430/4.7.3/../../../../msp430/lib/mcpu-430x/mmpy-16/msr20/mc20/libc.a(vuprintf.o)
 .debug_line    0x00000000000009ef       0x67 /opt/compilers/mspgcc-4.7.3/bin/../lib/gcc/msp430/4.7.3/../../../../msp430/lib/mcpu-430x/mmpy-16/msr20/mc20/libc.a(puts.o)
 .debug_line    0x0000000000000a56       0x6e /opt/compilers/mspgcc-4.7.3/bin/../lib/gcc/msp430/4.7.3/../../../../msp430/lib/mcpu-430x/mmpy-16/msr20/mc20/libc.a(rand.o)
 .debug_line    0x0000000000000ac4       0x46 /opt/compilers/mspgcc-4.7.3/bin/../lib/gcc/msp430/4.7.3/../../../../msp430/lib/mcpu-430x/mmpy-16/msr20/mc20/libc.a(strchr.o)
 .debug_line    0x0000000000000b0a       0x8c /opt/compilers/mspgcc-4.7.3/bin/../lib/gcc/msp430/4.7.3/../../../../msp430/lib/mcpu-430x/mmpy-16/msr20/mc20/libc.a(memchr.o)
 .debug_line    0x0000000000000b96       0x93 /opt/compilers/mspgcc-4.7.3/bin/../lib/gcc/msp430/4.7.3/../../../../msp430/lib/mcpu-430x/mmpy-16/msr20/mc20/libc.a(strncmp.o)
 .debug_line    0x0000000000000c29       0x93 /opt/compilers/mspgcc-4.7.3/bin/../lib/gcc/msp430/4.7.3/../../../../msp430/lib/mcpu-430x/mmpy-16/msr20/mc20/libc.a(memcmp.o)
 .debug_line    0x0000000000000cbc      0x11c /opt/compilers/mspgcc-4.7.3/bin/../lib/gcc/msp430/4.7.3/../../../../msp430/lib/mcpu-430x/mmpy-16/msr20/mc20/libc.a(memcpy.o)
 .debug_line    0x0000000000000dd8      0x11b /opt/compilers/mspgcc-4.7.3/bin/../lib/gcc/msp430/4.7.3/../../../../msp430/lib/mcpu-430x/mmpy-16/msr20/mc20/libc.a(memmove.o)
 .debug_line    0x0000000000000ef3       0xf6 /opt/compilers/mspgcc-4.7.3/bin/../lib/gcc/msp430/4.7.3/../../../../msp430/lib/mcpu-430x/mmpy-16/msr20/mc20/libc.a(memset.o)
 .debug_line    0x0000000000000fe9       0x54 /opt/compilers/mspgcc-4.7.3/bin/../lib/gcc/msp430/4.7.3/../../../../msp430/lib/mcpu-430x/mmpy-16/msr20/mc20/libc.a(strcat.o)
 .debug_line    0x000000000000103d       0x31 /opt/compilers/mspgcc-4.7.3/bin/../lib/gcc/msp430/4.7.3/../../../../msp430/lib/mcpu-430x/mmpy-16/msr20/mc20/libc.a(errno.o)
 .debug_line    0x000000000000106e       0x7f /opt/compilers/mspgcc-4.7.3/bin/../lib/gcc/msp430/4.7.3/mcpu-430x/mmpy-16/msr20/mc20/libgcc.a(_mulsi3.o)
 .debug_line    0x00000000000010ed       0xc4 /opt/compilers/mspgcc-4.7.3/bin/../lib/gcc/msp430/4.7.3/mcpu-430x/mmpy-16/msr20/mc20/libgcc.a(_udivmod64.o)
 .debug_line    0x00000000000011b1       0x6d /opt/compilers/mspgcc-4.7.3/bin/../lib/gcc/msp430/4.7.3/mcpu-430x/mmpy-16/msr20/mc20/libcrt0.a(__watchdog_support.o)
 .debug_line    0x000000000000121e       0x6b /opt/compilers/mspgcc-4.7.3/bin/../lib/gcc/msp430/4.7.3/mcpu-430x/mmpy-16/msr20/mc20/libcrt0.a(__init_stack.o)
 .debug_line    0x0000000000001289       0x71 /opt/compilers/mspgcc-4.7.3/bin/../lib/gcc/msp430/4.7.3/mcpu-430x/mmpy-16/msr20/mc20/libcrt0.a(_copy_data.o)
 .debug_line    0x00000000000012fa       0x71 /opt/compilers/mspgcc-4.7.3/bin/../lib/gcc/msp430/4.7.3/mcpu-430x/mmpy-16/msr20/mc20/libcrt0.a(_clear_bss.o)
 .debug_line    0x000000000000136b       0x6c /opt/compilers/mspgcc-4.7.3/bin/../lib/gcc/msp430/4.7.3/mcpu-430x/mmpy-16/msr20/mc20/libcrt0.a(_endless_loop__.o)
 .debug_line    0x00000000000013d7       0x6b /opt/compilers/mspgcc-4.7.3/bin/../lib/gcc/msp430/4.7.3/mcpu-430x/mmpy-16/msr20/mc20/libcrt0.a(_unexpected_.o)

.debug_frame    0x0000000000000000      0x3b4
 *(.debug_frame)
 .debug_frame   0x0000000000000000       0x40 /opt/compilers/mspgcc-4.7.3/bin/../lib/gcc/msp430/4.7.3/../../../../msp430/lib/mcpu-430x/mmpy-16/msr20/mc20/libc.a(malloc.o)
 .debug_frame   0x0000000000000040       0x24 /opt/compilers/mspgcc-4.7.3/bin/../lib/gcc/msp430/4.7.3/../../../../msp430/lib/mcpu-430x/mmpy-16/msr20/mc20/libc.a(atoi.o)
 .debug_frame   0x0000000000000064       0x40 /opt/compilers/mspgcc-4.7.3/bin/../lib/gcc/msp430/4.7.3/../../../../msp430/lib/mcpu-430x/mmpy-16/msr20/mc20/libc.a(strtoul.o)
 .debug_frame   0x00000000000000a4       0x34 /opt/compilers/mspgcc-4.7.3/bin/../lib/gcc/msp430/4.7.3/../../../../msp430/lib/mcpu-430x/mmpy-16/msr20/mc20/libc.a(printf.o)
 .debug_frame   0x00000000000000d8       0x80 /opt/compilers/mspgcc-4.7.3/bin/../lib/gcc/msp430/4.7.3/../../../../msp430/lib/mcpu-430x/mmpy-16/msr20/mc20/libc.a(sprintf.o)
 .debug_frame   0x0000000000000158       0x88 /opt/compilers/mspgcc-4.7.3/bin/../lib/gcc/msp430/4.7.3/../../../../msp430/lib/mcpu-430x/mmpy-16/msr20/mc20/libc.a(vuprintf.o)
 .debug_frame   0x00000000000001e0       0x2c /opt/compilers/mspgcc-4.7.3/bin/../lib/gcc/msp430/4.7.3/../../../../msp430/lib/mcpu-430x/mmpy-16/msr20/mc20/libc.a(puts.o)
 .debug_frame   0x000000000000020c       0x4c /opt/compilers/mspgcc-4.7.3/bin/../lib/gcc/msp430/4.7.3/../../../../msp430/lib/mcpu-430x/mmpy-16/msr20/mc20/libc.a(rand.o)
 .debug_frame   0x0000000000000258       0x24 /opt/compilers/mspgcc-4.7.3/bin/../lib/gcc/msp430/4.7.3/../../../../msp430/lib/mcpu-430x/mmpy-16/msr20/mc20/libc.a(strchr.o)
 .debug_frame   0x000000000000027c       0x2c /opt/compilers/mspgcc-4.7.3/bin/../lib/gcc/msp430/4.7.3/../../../../msp430/lib/mcpu-430x/mmpy-16/msr20/mc20/libc.a(memchr.o)
 .debug_frame   0x00000000000002a8       0x2c /opt/compilers/mspgcc-4.7.3/bin/../lib/gcc/msp430/4.7.3/../../../../msp430/lib/mcpu-430x/mmpy-16/msr20/mc20/libc.a(strncmp.o)
 .debug_frame   0x00000000000002d4       0x2c /opt/compilers/mspgcc-4.7.3/bin/../lib/gcc/msp430/4.7.3/../../../../msp430/lib/mcpu-430x/mmpy-16/msr20/mc20/libc.a(memcmp.o)
 .debug_frame   0x0000000000000300       0x30 /opt/compilers/mspgcc-4.7.3/bin/../lib/gcc/msp430/4.7.3/../../../../msp430/lib/mcpu-430x/mmpy-16/msr20/mc20/libc.a(memcpy.o)
 .debug_frame   0x0000000000000330       0x30 /opt/compilers/mspgcc-4.7.3/bin/../lib/gcc/msp430/4.7.3/../../../../msp430/lib/mcpu-430x/mmpy-16/msr20/mc20/libc.a(memmove.o)
 .debug_frame   0x0000000000000360       0x30 /opt/compilers/mspgcc-4.7.3/bin/../lib/gcc/msp430/4.7.3/../../../../msp430/lib/mcpu-430x/mmpy-16/msr20/mc20/libc.a(memset.o)
 .debug_frame   0x0000000000000390       0x24 /opt/compilers/mspgcc-4.7.3/bin/../lib/gcc/msp430/4.7.3/../../../../msp430/lib/mcpu-430x/mmpy-16/msr20/mc20/libc.a(strcat.o)

.debug_str      0x0000000000000000      0x5b5
 *(.debug_str)
 .debug_str     0x0000000000000000      0x114 /opt/compilers/mspgcc-4.7.3/bin/../lib/gcc/msp430/4.7.3/../../../../msp430/lib/mcpu-430x/mmpy-16/msr20/mc20/libc.a(malloc.o)
                                        0x163 (size before relaxing)
 .debug_str     0x0000000000000114       0x1a /opt/compilers/mspgcc-4.7.3/bin/../lib/gcc/msp430/4.7.3/../../../../msp430/lib/mcpu-430x/mmpy-16/msr20/mc20/libc.a(atoi.o)
                                        0x10b (size before relaxing)
 .debug_str     0x000000000000012e       0x58 /opt/compilers/mspgcc-4.7.3/bin/../lib/gcc/msp430/4.7.3/../../../../msp430/lib/mcpu-430x/mmpy-16/msr20/mc20/libc.a(strtoul.o)
                                        0x149 (size before relaxing)
 .debug_str     0x0000000000000186       0x40 /opt/compilers/mspgcc-4.7.3/bin/../lib/gcc/msp430/4.7.3/../../../../msp430/lib/mcpu-430x/mmpy-16/msr20/mc20/libc.a(printf.o)
                                        0x149 (size before relaxing)
 .debug_str     0x00000000000001c6       0x69 /opt/compilers/mspgcc-4.7.3/bin/../lib/gcc/msp430/4.7.3/../../../../msp430/lib/mcpu-430x/mmpy-16/msr20/mc20/libc.a(sprintf.o)
                                        0x1ae (size before relaxing)
 .debug_str     0x000000000000022f      0x22b /opt/compilers/mspgcc-4.7.3/bin/../lib/gcc/msp430/4.7.3/../../../../msp430/lib/mcpu-430x/mmpy-16/msr20/mc20/libc.a(vuprintf.o)
                                        0x3af (size before relaxing)
 .debug_str     0x000000000000045a       0x1d /opt/compilers/mspgcc-4.7.3/bin/../lib/gcc/msp430/4.7.3/../../../../msp430/lib/mcpu-430x/mmpy-16/msr20/mc20/libc.a(puts.o)
                                        0x10e (size before relaxing)
 .debug_str     0x0000000000000477       0x2a /opt/compilers/mspgcc-4.7.3/bin/../lib/gcc/msp430/4.7.3/../../../../msp430/lib/mcpu-430x/mmpy-16/msr20/mc20/libc.a(rand.o)
                                        0x125 (size before relaxing)
 .debug_str     0x00000000000004a1       0x19 /opt/compilers/mspgcc-4.7.3/bin/../lib/gcc/msp430/4.7.3/../../../../msp430/lib/mcpu-430x/mmpy-16/msr20/mc20/libc.a(strchr.o)
                                        0x10a (size before relaxing)
 .debug_str     0x00000000000004ba       0x19 /opt/compilers/mspgcc-4.7.3/bin/../lib/gcc/msp430/4.7.3/../../../../msp430/lib/mcpu-430x/mmpy-16/msr20/mc20/libc.a(memchr.o)
                                        0x111 (size before relaxing)
 .debug_str     0x00000000000004d3       0x1b /opt/compilers/mspgcc-4.7.3/bin/../lib/gcc/msp430/4.7.3/../../../../msp430/lib/mcpu-430x/mmpy-16/msr20/mc20/libc.a(strncmp.o)
                                        0x113 (size before relaxing)
 .debug_str     0x00000000000004ee       0x19 /opt/compilers/mspgcc-4.7.3/bin/../lib/gcc/msp430/4.7.3/../../../../msp430/lib/mcpu-430x/mmpy-16/msr20/mc20/libc.a(memcmp.o)
                                        0x111 (size before relaxing)
 .debug_str     0x0000000000000507       0x3e /opt/compilers/mspgcc-4.7.3/bin/../lib/gcc/msp430/4.7.3/../../../../msp430/lib/mcpu-430x/mmpy-16/msr20/mc20/libc.a(memcpy.o)
                                        0x13f (size before relaxing)
 .debug_str     0x0000000000000545       0x1b /opt/compilers/mspgcc-4.7.3/bin/../lib/gcc/msp430/4.7.3/../../../../msp430/lib/mcpu-430x/mmpy-16/msr20/mc20/libc.a(memmove.o)
                                        0x141 (size before relaxing)
 .debug_str     0x0000000000000560       0x26 /opt/compilers/mspgcc-4.7.3/bin/../lib/gcc/msp430/4.7.3/../../../../msp430/lib/mcpu-430x/mmpy-16/msr20/mc20/libc.a(memset.o)
                                        0x13d (size before relaxing)
 .debug_str     0x0000000000000586       0x1e /opt/compilers/mspgcc-4.7.3/bin/../lib/gcc/msp430/4.7.3/../../../../msp430/lib/mcpu-430x/mmpy-16/msr20/mc20/libc.a(strcat.o)
                                        0x116 (size before relaxing)
 .debug_str     0x00000000000005a4       0x11 /opt/compilers/mspgcc-4.7.3/bin/../lib/gcc/msp430/4.7.3/../../../../msp430/lib/mcpu-430x/mmpy-16/msr20/mc20/libc.a(errno.o)
                                         0x78 (size before relaxing)

.debug_loc      0x0000000000000000     0x1ce6
 *(.debug_loc)
 .debug_loc     0x0000000000000000      0x166 /opt/compilers/mspgcc-4.7.3/bin/../lib/gcc/msp430/4.7.3/../../../../msp430/lib/mcpu-430x/mmpy-16/msr20/mc20/libc.a(malloc.o)
 .debug_loc     0x0000000000000166       0xd2 /opt/compilers/mspgcc-4.7.3/bin/../lib/gcc/msp430/4.7.3/../../../../msp430/lib/mcpu-430x/mmpy-16/msr20/mc20/libc.a(atoi.o)
 .debug_loc     0x0000000000000238      0x312 /opt/compilers/mspgcc-4.7.3/bin/../lib/gcc/msp430/4.7.3/../../../../msp430/lib/mcpu-430x/mmpy-16/msr20/mc20/libc.a(strtoul.o)
 .debug_loc     0x000000000000054a       0x78 /opt/compilers/mspgcc-4.7.3/bin/../lib/gcc/msp430/4.7.3/../../../../msp430/lib/mcpu-430x/mmpy-16/msr20/mc20/libc.a(printf.o)
 .debug_loc     0x00000000000005c2      0x1d5 /opt/compilers/mspgcc-4.7.3/bin/../lib/gcc/msp430/4.7.3/../../../../msp430/lib/mcpu-430x/mmpy-16/msr20/mc20/libc.a(sprintf.o)
 .debug_loc     0x0000000000000797      0xbfe /opt/compilers/mspgcc-4.7.3/bin/../lib/gcc/msp430/4.7.3/../../../../msp430/lib/mcpu-430x/mmpy-16/msr20/mc20/libc.a(vuprintf.o)
 .debug_loc     0x0000000000001395       0x3e /opt/compilers/mspgcc-4.7.3/bin/../lib/gcc/msp430/4.7.3/../../../../msp430/lib/mcpu-430x/mmpy-16/msr20/mc20/libc.a(puts.o)
 .debug_loc     0x00000000000013d3       0x78 /opt/compilers/mspgcc-4.7.3/bin/../lib/gcc/msp430/4.7.3/../../../../msp430/lib/mcpu-430x/mmpy-16/msr20/mc20/libc.a(rand.o)
 .debug_loc     0x000000000000144b       0x3a /opt/compilers/mspgcc-4.7.3/bin/../lib/gcc/msp430/4.7.3/../../../../msp430/lib/mcpu-430x/mmpy-16/msr20/mc20/libc.a(strchr.o)
 .debug_loc     0x0000000000001485       0x72 /opt/compilers/mspgcc-4.7.3/bin/../lib/gcc/msp430/4.7.3/../../../../msp430/lib/mcpu-430x/mmpy-16/msr20/mc20/libc.a(memchr.o)
 .debug_loc     0x00000000000014f7       0x7a /opt/compilers/mspgcc-4.7.3/bin/../lib/gcc/msp430/4.7.3/../../../../msp430/lib/mcpu-430x/mmpy-16/msr20/mc20/libc.a(strncmp.o)
 .debug_loc     0x0000000000001571       0x6d /opt/compilers/mspgcc-4.7.3/bin/../lib/gcc/msp430/4.7.3/../../../../msp430/lib/mcpu-430x/mmpy-16/msr20/mc20/libc.a(memcmp.o)
 .debug_loc     0x00000000000015de      0x2c3 /opt/compilers/mspgcc-4.7.3/bin/../lib/gcc/msp430/4.7.3/../../../../msp430/lib/mcpu-430x/mmpy-16/msr20/mc20/libc.a(memcpy.o)
 .debug_loc     0x00000000000018a1      0x2c3 /opt/compilers/mspgcc-4.7.3/bin/../lib/gcc/msp430/4.7.3/../../../../msp430/lib/mcpu-430x/mmpy-16/msr20/mc20/libc.a(memmove.o)
 .debug_loc     0x0000000000001b64      0x139 /opt/compilers/mspgcc-4.7.3/bin/../lib/gcc/msp430/4.7.3/../../../../msp430/lib/mcpu-430x/mmpy-16/msr20/mc20/libc.a(memset.o)
 .debug_loc     0x0000000000001c9d       0x49 /opt/compilers/mspgcc-4.7.3/bin/../lib/gcc/msp430/4.7.3/../../../../msp430/lib/mcpu-430x/mmpy-16/msr20/mc20/libc.a(strcat.o)

.debug_macinfo
 *(.debug_macinfo)

.debug_pubtypes
 *(.debug_pubtypes)

.debug_ranges   0x0000000000000000      0x198
 *(.debug_ranges)
 .debug_ranges  0x0000000000000000       0x30 /opt/compilers/mspgcc-4.7.3/bin/../lib/gcc/msp430/4.7.3/../../../../msp430/lib/mcpu-430x/mmpy-16/msr20/mc20/libc.a(malloc.o)
 .debug_ranges  0x0000000000000030       0x10 /opt/compilers/mspgcc-4.7.3/bin/../lib/gcc/msp430/4.7.3/../../../../msp430/lib/mcpu-430x/mmpy-16/msr20/mc20/libc.a(atoi.o)
 .debug_ranges  0x0000000000000040       0x10 /opt/compilers/mspgcc-4.7.3/bin/../lib/gcc/msp430/4.7.3/../../../../msp430/lib/mcpu-430x/mmpy-16/msr20/mc20/libc.a(strtoul.o)
 .debug_ranges  0x0000000000000050       0x18 /opt/compilers/mspgcc-4.7.3/bin/../lib/gcc/msp430/4.7.3/../../../../msp430/lib/mcpu-430x/mmpy-16/msr20/mc20/libc.a(printf.o)
 .debug_ranges  0x0000000000000068       0x38 /opt/compilers/mspgcc-4.7.3/bin/../lib/gcc/msp430/4.7.3/../../../../msp430/lib/mcpu-430x/mmpy-16/msr20/mc20/libc.a(sprintf.o)
 .debug_ranges  0x00000000000000a0       0x48 /opt/compilers/mspgcc-4.7.3/bin/../lib/gcc/msp430/4.7.3/../../../../msp430/lib/mcpu-430x/mmpy-16/msr20/mc20/libc.a(vuprintf.o)
 .debug_ranges  0x00000000000000e8       0x10 /opt/compilers/mspgcc-4.7.3/bin/../lib/gcc/msp430/4.7.3/../../../../msp430/lib/mcpu-430x/mmpy-16/msr20/mc20/libc.a(puts.o)
 .debug_ranges  0x00000000000000f8       0x20 /opt/compilers/mspgcc-4.7.3/bin/../lib/gcc/msp430/4.7.3/../../../../msp430/lib/mcpu-430x/mmpy-16/msr20/mc20/libc.a(rand.o)
 .debug_ranges  0x0000000000000118       0x10 /opt/compilers/mspgcc-4.7.3/bin/../lib/gcc/msp430/4.7.3/../../../../msp430/lib/mcpu-430x/mmpy-16/msr20/mc20/libc.a(strchr.o)
 .debug_ranges  0x0000000000000128       0x10 /opt/compilers/mspgcc-4.7.3/bin/../lib/gcc/msp430/4.7.3/../../../../msp430/lib/mcpu-430x/mmpy-16/msr20/mc20/libc.a(memchr.o)
 .debug_ranges  0x0000000000000138       0x10 /opt/compilers/mspgcc-4.7.3/bin/../lib/gcc/msp430/4.7.3/../../../../msp430/lib/mcpu-430x/mmpy-16/msr20/mc20/libc.a(strncmp.o)
 .debug_ranges  0x0000000000000148       0x10 /opt/compilers/mspgcc-4.7.3/bin/../lib/gcc/msp430/4.7.3/../../../../msp430/lib/mcpu-430x/mmpy-16/msr20/mc20/libc.a(memcmp.o)
 .debug_ranges  0x0000000000000158       0x10 /opt/compilers/mspgcc-4.7.3/bin/../lib/gcc/msp430/4.7.3/../../../../msp430/lib/mcpu-430x/mmpy-16/msr20/mc20/libc.a(memcpy.o)
 .debug_ranges  0x0000000000000168       0x10 /opt/compilers/mspgcc-4.7.3/bin/../lib/gcc/msp430/4.7.3/../../../../msp430/lib/mcpu-430x/mmpy-16/msr20/mc20/libc.a(memmove.o)
 .debug_ranges  0x0000000000000178       0x10 /opt/compilers/mspgcc-4.7.3/bin/../lib/gcc/msp430/4.7.3/../../../../msp430/lib/mcpu-430x/mmpy-16/msr20/mc20/libc.a(memset.o)
 .debug_ranges  0x0000000000000188       0x10 /opt/compilers/mspgcc-4.7.3/bin/../lib/gcc/msp430/4.7.3/../../../../msp430/lib/mcpu-430x/mmpy-16/msr20/mc20/libc.a(strcat.o)
                0x0000000000005c00                PROVIDE (__stack, (ORIGIN (ram) + 0x4000))
                0x000000000000fe12                __data_start_rom = _etext
                0x000000000000ff80                __data_end_rom = (_etext + SIZEOF (.data))
OUTPUT(park.wismote elf32-msp430)

.gnu.attributes
                0x0000000000000000       0x11
 .gnu.attributes
                0x0000000000000000       0x11 /opt/compilers/mspgcc-4.7.3/bin/../lib/gcc/msp430/4.7.3/mcpu-430x/mmpy-16/msr20/mc20/crt0ivtbl64.o
 .gnu.attributes
                0x0000000000000011       0x11 park.co
 .gnu.attributes
                0x0000000000000022       0x11 obj_wismote/parkevent.o
 .gnu.attributes
                0x0000000000000033       0x11 obj_wismote/dataLayer.o
 .gnu.attributes
                0x0000000000000044       0x11 obj_wismote/data.o
 .gnu.attributes
                0x0000000000000055       0x11 obj_wismote/helpers.o
 .gnu.attributes
                0x0000000000000066       0x11 obj_wismote/contiki-wismote-main.o
 .gnu.attributes
                0x0000000000000077       0x11 contiki-wismote.a(er-coap.o)
 .gnu.attributes
                0x0000000000000088       0x11 contiki-wismote.a(er-coap-engine.)
 .gnu.attributes
                0x0000000000000099       0x11 contiki-wismote.a(er-coap-transac)
 .gnu.attributes
                0x00000000000000aa       0x11 contiki-wismote.a(er-coap-observe)
 .gnu.attributes
                0x00000000000000bb       0x11 contiki-wismote.a(er-coap-res-wel)
 .gnu.attributes
                0x00000000000000cc       0x11 contiki-wismote.a(er-coap-observe)
 .gnu.attributes
                0x00000000000000dd       0x11 contiki-wismote.a(rest-engine.o)
 .gnu.attributes
                0x00000000000000ee       0x11 contiki-wismote.a(contiki-wismote)
 .gnu.attributes
                0x00000000000000ff       0x11 contiki-wismote.a(button-sensor.o)
 .gnu.attributes
                0x0000000000000110       0x11 contiki-wismote.a(node-id.o)
 .gnu.attributes
                0x0000000000000121       0x11 contiki-wismote.a(sensors.o)
 .gnu.attributes
                0x0000000000000132       0x11 contiki-wismote.a(cc2520.o)
 .gnu.attributes
                0x0000000000000143       0x11 contiki-wismote.a(cc2520-arch.o)
 .gnu.attributes
                0x0000000000000154       0x11 contiki-wismote.a(uart1.o)
 .gnu.attributes
                0x0000000000000165       0x11 contiki-wismote.a(uart1-putchar.o)
 .gnu.attributes
                0x0000000000000176       0x11 contiki-wismote.a(msp430.o)
 .gnu.attributes
                0x0000000000000187       0x11 contiki-wismote.a(clock.o)
 .gnu.attributes
                0x0000000000000198       0x11 contiki-wismote.a(leds.o)
 .gnu.attributes
                0x00000000000001a9       0x11 contiki-wismote.a(leds-arch.o)
 .gnu.attributes
                0x00000000000001ba       0x11 contiki-wismote.a(watchdog.o)
 .gnu.attributes
                0x00000000000001cb       0x11 contiki-wismote.a(rtimer-arch.o)
 .gnu.attributes
                0x00000000000001dc       0x11 contiki-wismote.a(autostart.o)
 .gnu.attributes
                0x00000000000001ed       0x11 contiki-wismote.a(energest.o)
 .gnu.attributes
                0x00000000000001fe       0x11 contiki-wismote.a(etimer.o)
 .gnu.attributes
                0x000000000000020f       0x11 contiki-wismote.a(ctimer.o)
 .gnu.attributes
                0x0000000000000220       0x11 contiki-wismote.a(process.o)
 .gnu.attributes
                0x0000000000000231       0x11 contiki-wismote.a(rtimer.o)
 .gnu.attributes
                0x0000000000000242       0x11 contiki-wismote.a(timer.o)
 .gnu.attributes
                0x0000000000000253       0x11 contiki-wismote.a(list.o)
 .gnu.attributes
                0x0000000000000264       0x11 contiki-wismote.a(memb.o)
 .gnu.attributes
                0x0000000000000275       0x11 contiki-wismote.a(random.o)
 .gnu.attributes
                0x0000000000000286       0x11 contiki-wismote.a(uip-ds6.o)
 .gnu.attributes
                0x0000000000000297       0x11 contiki-wismote.a(uip-ds6-route.o)
 .gnu.attributes
                0x00000000000002a8       0x11 contiki-wismote.a(uip6.o)
 .gnu.attributes
                0x00000000000002b9       0x11 contiki-wismote.a(uip-ds6-nbr.o)
 .gnu.attributes
                0x00000000000002ca       0x11 contiki-wismote.a(uip-nd6.o)
 .gnu.attributes
                0x00000000000002db       0x11 contiki-wismote.a(sicslowpan.o)
 .gnu.attributes
                0x00000000000002ec       0x11 contiki-wismote.a(uip-debug.o)
 .gnu.attributes
                0x00000000000002fd       0x11 contiki-wismote.a(uip-udp-packet.)
 .gnu.attributes
                0x000000000000030e       0x11 contiki-wismote.a(tcpip.o)
 .gnu.attributes
                0x000000000000031f       0x11 contiki-wismote.a(rpl-ext-header.)
 .gnu.attributes
                0x0000000000000330       0x11 contiki-wismote.a(rpl.o)
 .gnu.attributes
                0x0000000000000341       0x11 contiki-wismote.a(rpl-mrhof.o)
 .gnu.attributes
                0x0000000000000352       0x11 contiki-wismote.a(rpl-dag.o)
 .gnu.attributes
                0x0000000000000363       0x11 contiki-wismote.a(queuebuf.o)
 .gnu.attributes
                0x0000000000000374       0x11 contiki-wismote.a(nbr-table.o)
 .gnu.attributes
                0x0000000000000385       0x11 contiki-wismote.a(packetbuf.o)
 .gnu.attributes
                0x0000000000000396       0x11 contiki-wismote.a(linkaddr.o)
 .gnu.attributes
                0x00000000000003a7       0x11 contiki-wismote.a(nullmac.o)
 .gnu.attributes
                0x00000000000003b8       0x11 contiki-wismote.a(nullrdc.o)
 .gnu.attributes
                0x00000000000003c9       0x11 contiki-wismote.a(framer-802154.o)
 .gnu.attributes
                0x00000000000003da       0x11 contiki-wismote.a(frame802154.o)
 .gnu.attributes
                0x00000000000003eb       0x11 contiki-wismote.a(mac.o)
 .gnu.attributes
                0x00000000000003fc       0x11 contiki-wismote.a(framer.o)
 .gnu.attributes
                0x000000000000040d       0x11 contiki-wismote.a(nullsec.o)
 .gnu.attributes
                0x000000000000041e       0x11 contiki-wismote.a(spi.o)
 .gnu.attributes
                0x000000000000042f       0x11 contiki-wismote.a(stimer.o)
 .gnu.attributes
                0x0000000000000440       0x11 contiki-wismote.a(uip-icmp6.o)
 .gnu.attributes
                0x0000000000000451       0x11 contiki-wismote.a(rpl-icmp6.o)
 .gnu.attributes
                0x0000000000000462       0x11 contiki-wismote.a(rpl-timers.o)
 .gnu.attributes
                0x0000000000000473       0x11 contiki-wismote.a(mac-sequence.o)
 .gnu.attributes
                0x0000000000000484       0x11 /opt/compilers/mspgcc-4.7.3/bin/../lib/gcc/msp430/4.7.3/mcpu-430x/mmpy-16/msr20/mc20/libgcc.a(_udivmod16.o)
 .gnu.attributes
                0x0000000000000495       0x11 /opt/compilers/mspgcc-4.7.3/bin/../lib/gcc/msp430/4.7.3/mcpu-430x/mmpy-16/msr20/mc20/libgcc.a(_divmod16.o)
 .gnu.attributes
                0x00000000000004a6       0x11 /opt/compilers/mspgcc-4.7.3/bin/../lib/gcc/msp430/4.7.3/mcpu-430x/mmpy-16/msr20/mc20/libgcc.a(_udivmod32.o)
 .gnu.attributes
                0x00000000000004b7       0x11 /opt/compilers/mspgcc-4.7.3/bin/../lib/gcc/msp430/4.7.3/mcpu-430x/mmpy-16/msr20/mc20/libgcc.a(_divmod32.o)
 .gnu.attributes
                0x00000000000004c8       0x11 /opt/compilers/mspgcc-4.7.3/bin/../lib/gcc/msp430/4.7.3/../../../../msp430/lib/mcpu-430x/mmpy-16/msr20/mc20/libc.a(malloc.o)
 .gnu.attributes
                0x00000000000004d9       0x11 /opt/compilers/mspgcc-4.7.3/bin/../lib/gcc/msp430/4.7.3/../../../../msp430/lib/mcpu-430x/mmpy-16/msr20/mc20/libc.a(atoi.o)
 .gnu.attributes
                0x00000000000004ea       0x11 /opt/compilers/mspgcc-4.7.3/bin/../lib/gcc/msp430/4.7.3/../../../../msp430/lib/mcpu-430x/mmpy-16/msr20/mc20/libc.a(strtoul.o)
 .gnu.attributes
                0x00000000000004fb       0x11 /opt/compilers/mspgcc-4.7.3/bin/../lib/gcc/msp430/4.7.3/../../../../msp430/lib/mcpu-430x/mmpy-16/msr20/mc20/libc.a(printf.o)
 .gnu.attributes
                0x000000000000050c       0x11 /opt/compilers/mspgcc-4.7.3/bin/../lib/gcc/msp430/4.7.3/../../../../msp430/lib/mcpu-430x/mmpy-16/msr20/mc20/libc.a(sprintf.o)
 .gnu.attributes
                0x000000000000051d       0x11 /opt/compilers/mspgcc-4.7.3/bin/../lib/gcc/msp430/4.7.3/../../../../msp430/lib/mcpu-430x/mmpy-16/msr20/mc20/libc.a(vuprintf.o)
 .gnu.attributes
                0x000000000000052e       0x11 /opt/compilers/mspgcc-4.7.3/bin/../lib/gcc/msp430/4.7.3/../../../../msp430/lib/mcpu-430x/mmpy-16/msr20/mc20/libc.a(puts.o)
 .gnu.attributes
                0x000000000000053f       0x11 /opt/compilers/mspgcc-4.7.3/bin/../lib/gcc/msp430/4.7.3/../../../../msp430/lib/mcpu-430x/mmpy-16/msr20/mc20/libc.a(rand.o)
 .gnu.attributes
                0x0000000000000550       0x11 /opt/compilers/mspgcc-4.7.3/bin/../lib/gcc/msp430/4.7.3/../../../../msp430/lib/mcpu-430x/mmpy-16/msr20/mc20/libc.a(strchr.o)
 .gnu.attributes
                0x0000000000000561       0x11 /opt/compilers/mspgcc-4.7.3/bin/../lib/gcc/msp430/4.7.3/../../../../msp430/lib/mcpu-430x/mmpy-16/msr20/mc20/libc.a(memchr.o)
 .gnu.attributes
                0x0000000000000572       0x11 /opt/compilers/mspgcc-4.7.3/bin/../lib/gcc/msp430/4.7.3/../../../../msp430/lib/mcpu-430x/mmpy-16/msr20/mc20/libc.a(strncmp.o)
 .gnu.attributes
                0x0000000000000583       0x11 /opt/compilers/mspgcc-4.7.3/bin/../lib/gcc/msp430/4.7.3/../../../../msp430/lib/mcpu-430x/mmpy-16/msr20/mc20/libc.a(memcmp.o)
 .gnu.attributes
                0x0000000000000594       0x11 /opt/compilers/mspgcc-4.7.3/bin/../lib/gcc/msp430/4.7.3/../../../../msp430/lib/mcpu-430x/mmpy-16/msr20/mc20/libc.a(memcpy.o)
 .gnu.attributes
                0x00000000000005a5       0x11 /opt/compilers/mspgcc-4.7.3/bin/../lib/gcc/msp430/4.7.3/../../../../msp430/lib/mcpu-430x/mmpy-16/msr20/mc20/libc.a(memmove.o)
 .gnu.attributes
                0x00000000000005b6       0x11 /opt/compilers/mspgcc-4.7.3/bin/../lib/gcc/msp430/4.7.3/../../../../msp430/lib/mcpu-430x/mmpy-16/msr20/mc20/libc.a(memset.o)
 .gnu.attributes
                0x00000000000005c7       0x11 /opt/compilers/mspgcc-4.7.3/bin/../lib/gcc/msp430/4.7.3/../../../../msp430/lib/mcpu-430x/mmpy-16/msr20/mc20/libc.a(strcat.o)
 .gnu.attributes
                0x00000000000005d8       0x11 /opt/compilers/mspgcc-4.7.3/bin/../lib/gcc/msp430/4.7.3/../../../../msp430/lib/mcpu-430x/mmpy-16/msr20/mc20/libc.a(errno.o)
 .gnu.attributes
                0x00000000000005e9       0x11 /opt/compilers/mspgcc-4.7.3/bin/../lib/gcc/msp430/4.7.3/mcpu-430x/mmpy-16/msr20/mc20/libgcc.a(_mulsi3.o)
 .gnu.attributes
                0x00000000000005fa       0x11 /opt/compilers/mspgcc-4.7.3/bin/../lib/gcc/msp430/4.7.3/mcpu-430x/mmpy-16/msr20/mc20/libgcc.a(_udivmod64.o)
 .gnu.attributes
                0x000000000000060b       0x11 /opt/compilers/mspgcc-4.7.3/bin/../lib/gcc/msp430/4.7.3/mcpu-430x/mmpy-16/msr20/mc20/libcrt0.a(_reset_vector__.o)
 .gnu.attributes
                0x000000000000061c       0x11 /opt/compilers/mspgcc-4.7.3/bin/../lib/gcc/msp430/4.7.3/mcpu-430x/mmpy-16/msr20/mc20/libcrt0.a(__watchdog_support.o)
 .gnu.attributes
                0x000000000000062d       0x11 /opt/compilers/mspgcc-4.7.3/bin/../lib/gcc/msp430/4.7.3/mcpu-430x/mmpy-16/msr20/mc20/libcrt0.a(__init_stack.o)
 .gnu.attributes
                0x000000000000063e       0x11 /opt/compilers/mspgcc-4.7.3/bin/../lib/gcc/msp430/4.7.3/mcpu-430x/mmpy-16/msr20/mc20/libcrt0.a(__low_level_init.o)
 .gnu.attributes
                0x000000000000064f       0x11 /opt/compilers/mspgcc-4.7.3/bin/../lib/gcc/msp430/4.7.3/mcpu-430x/mmpy-16/msr20/mc20/libcrt0.a(_copy_data.o)
 .gnu.attributes
                0x0000000000000660       0x11 /opt/compilers/mspgcc-4.7.3/bin/../lib/gcc/msp430/4.7.3/mcpu-430x/mmpy-16/msr20/mc20/libcrt0.a(_clear_bss.o)
 .gnu.attributes
                0x0000000000000671       0x11 /opt/compilers/mspgcc-4.7.3/bin/../lib/gcc/msp430/4.7.3/mcpu-430x/mmpy-16/msr20/mc20/libcrt0.a(__stop_progExec__.o)
 .gnu.attributes
                0x0000000000000682       0x11 /opt/compilers/mspgcc-4.7.3/bin/../lib/gcc/msp430/4.7.3/mcpu-430x/mmpy-16/msr20/mc20/libcrt0.a(_endless_loop__.o)
 .gnu.attributes
                0x0000000000000693       0x11 /opt/compilers/mspgcc-4.7.3/bin/../lib/gcc/msp430/4.7.3/mcpu-430x/mmpy-16/msr20/mc20/libcrt0.a(_unexpected_.o)
